---
triple:          'arm64-apple-darwin'
binary-path:     '/Users/midzero/Desktop/CMP2003 Project V3/CMP2003 V3/main'
relocations:
  - { offsetInCU: 0x7078, offset: 0x7078, size: 0x8, addend: 0x0, symName: __ZNSt3__16chronomiB7v160006IxNS_5ratioILl1ELl1000000000EEExS3_EENS_11common_typeIJNS0_8durationIT_T0_EENS5_IT1_T2_EEEE4typeERKS8_RKSB_, symObjAddr: 0x6184, symBinAddr: 0x10000963C, symSize: 0x70 }
  - { offsetInCU: 0x70ED, offset: 0x70ED, size: 0x8, addend: 0x0, symName: __ZNSt3__16chrono13duration_castB7v160006INS0_8durationIdNS_5ratioILl1ELl1EEEEExNS3_ILl1ELl1000000000EEEEENS_9enable_ifIXsr13__is_durationIT_EE5valueES8_E4typeERKNS2_IT0_T1_EE, symObjAddr: 0x1454, symBinAddr: 0x10000490C, symSize: 0x30 }
  - { offsetInCU: 0x7134, offset: 0x7134, size: 0x8, addend: 0x0, symName: __ZNSt3__16chronomiB7v160006INS0_12steady_clockENS0_8durationIxNS_5ratioILl1ELl1000000000EEEEES6_EENS_11common_typeIJT0_T1_EE4typeERKNS0_10time_pointIT_S8_EERKNSC_ISD_S9_EE, symObjAddr: 0x1484, symBinAddr: 0x10000493C, symSize: 0x58 }
  - { offsetInCU: 0x73CE, offset: 0x73CE, size: 0x8, addend: 0x0, symName: __ZNSt3__124__put_character_sequenceB7v160006IcNS_11char_traitsIcEEEERNS_13basic_ostreamIT_T0_EES7_PKS4_m, symObjAddr: 0x66A8, symBinAddr: 0x100009B60, symSize: 0x1EC }
  - { offsetInCU: 0xA332, offset: 0xA332, size: 0x8, addend: 0x0, symName: __ZNSt3__117__floyd_sift_downB7v160006INS_17_ClassicAlgPolicyERNS_7greaterINS_4pairIiNS_12basic_stringIcNS_11char_traitsIcEENS_9allocatorIcEEEEEEEENS_11__wrap_iterIPSA_EEEET1_SG_OT0_NS_15iterator_traitsISG_E15difference_typeE, symObjAddr: 0x9F0C, symBinAddr: 0x10000D3C4, symSize: 0x148 }
  - { offsetInCU: 0xC36B, offset: 0xC36B, size: 0x8, addend: 0x0, symName: __ZNSt3__1lsB7v160006IcNS_11char_traitsIcEENS_9allocatorIcEEEERNS_13basic_ostreamIT_T0_EES9_RKNS_12basic_stringIS6_S7_T1_EE, symObjAddr: 0x3FC, symBinAddr: 0x1000038B4, symSize: 0x4C }
  - { offsetInCU: 0xC3C3, offset: 0xC3C3, size: 0x8, addend: 0x0, symName: __ZNSt3__1lsB7v160006INS_11char_traitsIcEEEERNS_13basic_ostreamIcT_EES6_PKc, symObjAddr: 0x448, symBinAddr: 0x100003900, symSize: 0x48 }
  - { offsetInCU: 0xC409, offset: 0xC409, size: 0x8, addend: 0x0, symName: __ZNSt3__14endlB7v160006IcNS_11char_traitsIcEEEERNS_13basic_ostreamIT_T0_EES7_, symObjAddr: 0x4BC, symBinAddr: 0x100003974, symSize: 0x58 }
  - { offsetInCU: 0xC449, offset: 0xC449, size: 0x8, addend: 0x0, symName: __ZNSt3__17getlineB7v160006IcNS_11char_traitsIcEENS_9allocatorIcEEEERNS_13basic_istreamIT_T0_EES9_RNS_12basic_stringIS6_S7_T1_EE, symObjAddr: 0x540, symBinAddr: 0x1000039F8, symSize: 0x5C }
  - { offsetInCU: 0xC711, offset: 0xC711, size: 0x8, addend: 0x0, symName: __ZNSt3__1neB7v160006IPNS_6vectorINS_4pairINS_12basic_stringIcNS_11char_traitsIcEENS_9allocatorIcEEEEiEENS6_IS9_EEEEEEbRKNS_11__wrap_iterIT_EESH_, symObjAddr: 0xBC8, symBinAddr: 0x100004080, symSize: 0x34 }
  - { offsetInCU: 0xC754, offset: 0xC754, size: 0x8, addend: 0x0, symName: __ZNSt3__1neB7v160006IPKNS_4pairINS_12basic_stringIcNS_11char_traitsIcEENS_9allocatorIcEEEEiEEEEbRKNS_11__wrap_iterIT_EESF_, symObjAddr: 0xC74, symBinAddr: 0x10000412C, symSize: 0x34 }
  - { offsetInCU: 0xC797, offset: 0xC797, size: 0x8, addend: 0x0, symName: __ZNSt3__19make_pairB7v160006IRKiRKNS_12basic_stringIcNS_11char_traitsIcEENS_9allocatorIcEEEEEENS_4pairINS_18__unwrap_ref_decayIT_E4typeENSC_IT0_E4typeEEEOSD_OSG_, symObjAddr: 0xD18, symBinAddr: 0x1000041D0, symSize: 0x40 }
  - { offsetInCU: 0xC802, offset: 0xC802, size: 0x8, addend: 0x0, symName: __ZNSt3__1neB7v160006IPNS_4pairIiNS_12basic_stringIcNS_11char_traitsIcEENS_9allocatorIcEEEEEEEEbRKNS_11__wrap_iterIT_EESE_, symObjAddr: 0x150C, symBinAddr: 0x1000049C4, symSize: 0x34 }
  - { offsetInCU: 0xC845, offset: 0xC845, size: 0x8, addend: 0x0, symName: __ZNSt3__1neB7v160006IPNS_4pairINS_12basic_stringIcNS_11char_traitsIcEENS_9allocatorIcEEEEiEEEEbRKNS_11__wrap_iterIT_EESE_, symObjAddr: 0x1728, symBinAddr: 0x100004BE0, symSize: 0x34 }
  - { offsetInCU: 0xC888, offset: 0xC888, size: 0x8, addend: 0x0, symName: __ZNSt3__1eqB7v160006INS_9allocatorIcEEEEbRKNS_12basic_stringIcNS_11char_traitsIcEET_EES9_, symObjAddr: 0x1774, symBinAddr: 0x100004C2C, symSize: 0x148 }
  - { offsetInCU: 0xC8FB, offset: 0xC8FB, size: 0x8, addend: 0x0, symName: __ZNSt3__1neB7v160006IPKcEEbRKNS_11__wrap_iterIT_EES7_, symObjAddr: 0x197C, symBinAddr: 0x100004E34, symSize: 0x34 }
  - { offsetInCU: 0xC971, offset: 0xC971, size: 0x8, addend: 0x0, symName: __ZNSt3__1eqB7v160006IPKcEEbRKNS_11__wrap_iterIT_EES7_, symObjAddr: 0x1C60, symBinAddr: 0x100005118, symSize: 0x48 }
  - { offsetInCU: 0xC9B4, offset: 0xC9B4, size: 0x8, addend: 0x0, symName: __ZNSt3__1eqB7v160006IPNS_4pairINS_12basic_stringIcNS_11char_traitsIcEENS_9allocatorIcEEEEiEEEEbRKNS_11__wrap_iterIT_EESE_, symObjAddr: 0x1D54, symBinAddr: 0x10000520C, symSize: 0x48 }
  - { offsetInCU: 0xC9F7, offset: 0xC9F7, size: 0x8, addend: 0x0, symName: __ZNSt3__112__to_addressB7v160006IKcEEPT_S3_, symObjAddr: 0x1E48, symBinAddr: 0x100005300, symSize: 0x14 }
  - { offsetInCU: 0xCA2C, offset: 0xCA2C, size: 0x8, addend: 0x0, symName: __ZNSt3__118__constexpr_memcmpB7v160006IcEEiPKT_S3_m, symObjAddr: 0x1E5C, symBinAddr: 0x100005314, symSize: 0x34 }
  - { offsetInCU: 0xCA7D, offset: 0xCA7D, size: 0x8, addend: 0x0, symName: __ZNSt3__112__to_addressB7v160006INS_4pairINS_12basic_stringIcNS_11char_traitsIcEENS_9allocatorIcEEEEiEEEEPT_SA_, symObjAddr: 0x2180, symBinAddr: 0x100005638, symSize: 0x14 }
  - { offsetInCU: 0xCAB2, offset: 0xCAB2, size: 0x8, addend: 0x0, symName: __ZNSt3__13maxB7v160006ImEERKT_S3_S3_, symObjAddr: 0x2634, symBinAddr: 0x100005AEC, symSize: 0x2C }
  - { offsetInCU: 0xCAF5, offset: 0xCAF5, size: 0x8, addend: 0x0, symName: __ZNSt3__13minB7v160006ImEERKT_S3_S3_, symObjAddr: 0x2660, symBinAddr: 0x100005B18, symSize: 0x2C }
  - { offsetInCU: 0xCD39, offset: 0xCD39, size: 0x8, addend: 0x0, symName: __ZNSt3__13minB7v160006ImNS_6__lessImmEEEERKT_S5_S5_T0_, symObjAddr: 0x26EC, symBinAddr: 0x100005BA4, symSize: 0x54 }
  - { offsetInCU: 0xCDCE, offset: 0xCDCE, size: 0x8, addend: 0x0, symName: __ZNSt3__120__throw_length_errorB7v160006EPKc, symObjAddr: 0x27C8, symBinAddr: 0x100005C80, symSize: 0x64 }
  - { offsetInCU: 0xCDF6, offset: 0xCDF6, size: 0x8, addend: 0x0, symName: __ZNSt3__13maxB7v160006ImNS_6__lessImmEEEERKT_S5_S5_T0_, symObjAddr: 0x290C, symBinAddr: 0x100005DC4, symSize: 0x54 }
  - { offsetInCU: 0xCE50, offset: 0xCE50, size: 0x8, addend: 0x0, symName: __ZNSt3__119__allocate_at_leastB7v160006INS_9allocatorINS_4pairINS_12basic_stringIcNS_11char_traitsIcEENS1_IcEEEEiEEEEEENS_19__allocation_resultINS_16allocator_traitsIT_E7pointerEEERSC_m, symObjAddr: 0x2A70, symBinAddr: 0x100005F28, symSize: 0x40 }
  - { offsetInCU: 0xCE93, offset: 0xCE93, size: 0x8, addend: 0x0, symName: __ZNSt3__117__libcpp_allocateB7v160006Emm, symObjAddr: 0x2C10, symBinAddr: 0x1000060C8, symSize: 0x28 }
  - { offsetInCU: 0xCED0, offset: 0xCED0, size: 0x8, addend: 0x0, symName: __ZNSt3__121__libcpp_operator_newB7v160006IJmEEEPvDpT_, symObjAddr: 0x2C38, symBinAddr: 0x1000060F0, symSize: 0x24 }
  - { offsetInCU: 0xCF09, offset: 0xCF09, size: 0x8, addend: 0x0, symName: __ZNSt3__142__uninitialized_allocator_move_if_noexceptB7v160006INS_9allocatorINS_4pairINS_12basic_stringIcNS_11char_traitsIcEENS1_IcEEEEiEEEENS_16reverse_iteratorIPS8_EESC_SC_EET2_RT_T0_T1_SD_, symObjAddr: 0x2D78, symBinAddr: 0x100006230, symSize: 0x12C }
  - { offsetInCU: 0xCFA9, offset: 0xCFA9, size: 0x8, addend: 0x0, symName: __ZNSt3__14swapB7v160006IPNS_4pairINS_12basic_stringIcNS_11char_traitsIcEENS_9allocatorIcEEEEiEEEENS_9enable_ifIXaasr21is_move_constructibleIT_EE5valuesr18is_move_assignableISB_EE5valueEvE4typeERSB_SE_, symObjAddr: 0x2EF0, symBinAddr: 0x1000063A8, symSize: 0x3C }
  - { offsetInCU: 0xCFFA, offset: 0xCFFA, size: 0x8, addend: 0x0, symName: __ZNSt3__125__debug_db_invalidate_allB7v160006INS_6vectorINS_4pairINS_12basic_stringIcNS_11char_traitsIcEENS_9allocatorIcEEEEiEENS6_IS9_EEEEEEvPT_, symObjAddr: 0x2FD8, symBinAddr: 0x100006490, symSize: 0x10 }
  - { offsetInCU: 0xD02B, offset: 0xD02B, size: 0x8, addend: 0x0, symName: __ZNSt3__122__make_exception_guardB7v160006INS_29_AllocatorDestroyRangeReverseINS_9allocatorINS_4pairINS_12basic_stringIcNS_11char_traitsIcEENS2_IcEEEEiEEEENS_16reverse_iteratorIPS9_EEEEEENS_28__exception_guard_exceptionsIT_EESG_, symObjAddr: 0x3030, symBinAddr: 0x1000064E8, symSize: 0x4C }
  - { offsetInCU: 0xD061, offset: 0xD061, size: 0x8, addend: 0x0, symName: __ZNSt3__1neB7v160006IPNS_4pairINS_12basic_stringIcNS_11char_traitsIcEENS_9allocatorIcEEEEiEES9_EEbRKNS_16reverse_iteratorIT_EERKNSA_IT0_EE, symObjAddr: 0x30C0, symBinAddr: 0x100006578, symSize: 0x48 }
  - { offsetInCU: 0xD0AD, offset: 0xD0AD, size: 0x8, addend: 0x0, symName: __ZNSt3__112__to_addressB7v160006INS_16reverse_iteratorIPNS_4pairINS_12basic_stringIcNS_11char_traitsIcEENS_9allocatorIcEEEEiEEEEvEENS_5decayIDTclsr19__to_address_helperIT_EE6__callclsr3stdE7declvalIRKSD_EEEEE4typeESF_, symObjAddr: 0x313C, symBinAddr: 0x1000065F4, symSize: 0x24 }
  - { offsetInCU: 0xD0E3, offset: 0xD0E3, size: 0x8, addend: 0x0, symName: __ZNSt3__119__debug_db_insert_cB7v160006INS_12basic_stringIcNS_11char_traitsIcEENS_9allocatorIcEEEEEEvPT_, symObjAddr: 0x342C, symBinAddr: 0x1000068E4, symSize: 0x10 }
  - { offsetInCU: 0xD114, offset: 0xD114, size: 0x8, addend: 0x0, symName: __ZNSt3__115__debug_db_swapB7v160006INS_12basic_stringIcNS_11char_traitsIcEENS_9allocatorIcEEEEEEvPT_S8_, symObjAddr: 0x343C, symBinAddr: 0x1000068F4, symSize: 0x14 }
  - { offsetInCU: 0xD17C, offset: 0xD17C, size: 0x8, addend: 0x0, symName: __ZNSt3__119__allocator_destroyB7v160006INS_9allocatorINS_4pairINS_12basic_stringIcNS_11char_traitsIcEENS1_IcEEEEiEEEENS_16reverse_iteratorINSA_IPS8_EEEESD_EEvRT_T0_T1_, symObjAddr: 0x35E8, symBinAddr: 0x100006AA0, symSize: 0x70 }
  - { offsetInCU: 0xD1E1, offset: 0xD1E1, size: 0x8, addend: 0x0, symName: __ZNSt3__1neB7v160006INS_16reverse_iteratorIPNS_4pairINS_12basic_stringIcNS_11char_traitsIcEENS_9allocatorIcEEEEiEEEESB_EEbRKNS1_IT_EERKNS1_IT0_EE, symObjAddr: 0x3694, symBinAddr: 0x100006B4C, symSize: 0x60 }
  - { offsetInCU: 0xD22D, offset: 0xD22D, size: 0x8, addend: 0x0, symName: __ZNSt3__112__to_addressB7v160006INS_16reverse_iteratorINS1_IPNS_4pairINS_12basic_stringIcNS_11char_traitsIcEENS_9allocatorIcEEEEiEEEEEEvEENS_5decayIDTclsr19__to_address_helperIT_EE6__callclsr3stdE7declvalIRKSE_EEEEE4typeESG_, symObjAddr: 0x3720, symBinAddr: 0x100006BD8, symSize: 0x24 }
  - { offsetInCU: 0xD28C, offset: 0xD28C, size: 0x8, addend: 0x0, symName: __ZNSt3__119__libcpp_deallocateB7v160006EPvmm, symObjAddr: 0x3B30, symBinAddr: 0x100006FE8, symSize: 0x30 }
  - { offsetInCU: 0xD2D4, offset: 0xD2D4, size: 0x8, addend: 0x0, symName: __ZNSt3__127__do_deallocate_handle_sizeB7v160006IJEEEvPvmDpT_, symObjAddr: 0x3B60, symBinAddr: 0x100007018, symSize: 0x28 }
  - { offsetInCU: 0xD312, offset: 0xD312, size: 0x8, addend: 0x0, symName: __ZNSt3__124__libcpp_operator_deleteB7v160006IJPvEEEvDpT_, symObjAddr: 0x3B88, symBinAddr: 0x100007040, symSize: 0x24 }
  - { offsetInCU: 0xD347, offset: 0xD347, size: 0x8, addend: 0x0, symName: __ZNSt3__122__make_exception_guardB7v160006INS_6vectorINS1_INS_4pairINS_12basic_stringIcNS_11char_traitsIcEENS_9allocatorIcEEEEiEENS6_IS9_EEEENS6_ISB_EEE16__destroy_vectorEEENS_28__exception_guard_exceptionsIT_EESG_, symObjAddr: 0x3E40, symBinAddr: 0x1000072F8, symSize: 0x40 }
  - { offsetInCU: 0xD37C, offset: 0xD37C, size: 0x8, addend: 0x0, symName: __ZNSt3__119__debug_db_insert_cB7v160006INS_6vectorINS1_INS_4pairINS_12basic_stringIcNS_11char_traitsIcEENS_9allocatorIcEEEEiEENS6_IS9_EEEENS6_ISB_EEEEEEvPT_, symObjAddr: 0x3EB4, symBinAddr: 0x10000736C, symSize: 0x10 }
  - { offsetInCU: 0xD3AD, offset: 0xD3AD, size: 0x8, addend: 0x0, symName: __ZNSt3__119__allocate_at_leastB7v160006INS_9allocatorINS_6vectorINS_4pairINS_12basic_stringIcNS_11char_traitsIcEENS1_IcEEEEiEENS1_IS9_EEEEEEEENS_19__allocation_resultINS_16allocator_traitsIT_E7pointerEEERSF_m, symObjAddr: 0x4218, symBinAddr: 0x1000076D0, symSize: 0x40 }
  - { offsetInCU: 0xD3F0, offset: 0xD3F0, size: 0x8, addend: 0x0, symName: __ZNSt3__112__to_addressB7v160006INS_6vectorINS_4pairINS_12basic_stringIcNS_11char_traitsIcEENS_9allocatorIcEEEEiEENS6_IS9_EEEEEEPT_SD_, symObjAddr: 0x4500, symBinAddr: 0x1000079B8, symSize: 0x14 }
  - { offsetInCU: 0xD425, offset: 0xD425, size: 0x8, addend: 0x0, symName: __ZNSt3__130__uninitialized_allocator_copyB7v160006INS_9allocatorINS_6vectorINS_4pairINS_12basic_stringIcNS_11char_traitsIcEENS1_IcEEEEiEENS1_IS9_EEEEEEPSB_SD_SD_EET2_RT_T0_T1_SE_, symObjAddr: 0x45B0, symBinAddr: 0x100007A68, symSize: 0xF4 }
  - { offsetInCU: 0xD4C3, offset: 0xD4C3, size: 0x8, addend: 0x0, symName: __ZNSt3__122__make_exception_guardB7v160006INS_29_AllocatorDestroyRangeReverseINS_9allocatorINS_6vectorINS_4pairINS_12basic_stringIcNS_11char_traitsIcEENS2_IcEEEEiEENS2_ISA_EEEEEEPSC_EEEENS_28__exception_guard_exceptionsIT_EESH_, symObjAddr: 0x471C, symBinAddr: 0x100007BD4, symSize: 0x4C }
  - { offsetInCU: 0xD4F9, offset: 0xD4F9, size: 0x8, addend: 0x0, symName: __ZNSt3__122__make_exception_guardB7v160006INS_6vectorINS_4pairINS_12basic_stringIcNS_11char_traitsIcEENS_9allocatorIcEEEEiEENS6_IS9_EEE16__destroy_vectorEEENS_28__exception_guard_exceptionsIT_EESE_, symObjAddr: 0x4A88, symBinAddr: 0x100007F40, symSize: 0x40 }
  - { offsetInCU: 0xD52E, offset: 0xD52E, size: 0x8, addend: 0x0, symName: __ZNSt3__119__debug_db_insert_cB7v160006INS_6vectorINS_4pairINS_12basic_stringIcNS_11char_traitsIcEENS_9allocatorIcEEEEiEENS6_IS9_EEEEEEvPT_, symObjAddr: 0x4AFC, symBinAddr: 0x100007FB4, symSize: 0x10 }
  - { offsetInCU: 0xD55F, offset: 0xD55F, size: 0x8, addend: 0x0, symName: __ZNSt3__130__uninitialized_allocator_copyB7v160006INS_9allocatorINS_4pairINS_12basic_stringIcNS_11char_traitsIcEENS1_IcEEEEiEEEEPS8_SA_SA_EET2_RT_T0_T1_SB_, symObjAddr: 0x4D60, symBinAddr: 0x100008218, symSize: 0xF4 }
  - { offsetInCU: 0xD5FD, offset: 0xD5FD, size: 0x8, addend: 0x0, symName: __ZNSt3__122__make_exception_guardB7v160006INS_29_AllocatorDestroyRangeReverseINS_9allocatorINS_4pairINS_12basic_stringIcNS_11char_traitsIcEENS2_IcEEEEiEEEEPS9_EEEENS_28__exception_guard_exceptionsIT_EESE_, symObjAddr: 0x4E54, symBinAddr: 0x10000830C, symSize: 0x4C }
  - { offsetInCU: 0xD633, offset: 0xD633, size: 0x8, addend: 0x0, symName: __ZNSt3__119__allocator_destroyB7v160006INS_9allocatorINS_4pairINS_12basic_stringIcNS_11char_traitsIcEENS1_IcEEEEiEEEENS_16reverse_iteratorIPS8_EESC_EEvRT_T0_T1_, symObjAddr: 0x5158, symBinAddr: 0x100008610, symSize: 0x70 }
  - { offsetInCU: 0xD696, offset: 0xD696, size: 0x8, addend: 0x0, symName: __ZNSt3__118__debug_db_erase_cB7v160006INS_6vectorINS_4pairINS_12basic_stringIcNS_11char_traitsIcEENS_9allocatorIcEEEEiEENS6_IS9_EEEEEEvPT_, symObjAddr: 0x52B4, symBinAddr: 0x10000876C, symSize: 0x10 }
  - { offsetInCU: 0xD6C7, offset: 0xD6C7, size: 0x8, addend: 0x0, symName: __ZNSt3__119__allocator_destroyB7v160006INS_9allocatorINS_6vectorINS_4pairINS_12basic_stringIcNS_11char_traitsIcEENS1_IcEEEEiEENS1_IS9_EEEEEENS_16reverse_iteratorIPSB_EESF_EEvRT_T0_T1_, symObjAddr: 0x5430, symBinAddr: 0x1000088E8, symSize: 0x70 }
  - { offsetInCU: 0xD72A, offset: 0xD72A, size: 0x8, addend: 0x0, symName: __ZNSt3__1neB7v160006IPNS_6vectorINS_4pairINS_12basic_stringIcNS_11char_traitsIcEENS_9allocatorIcEEEEiEENS6_IS9_EEEESC_EEbRKNS_16reverse_iteratorIT_EERKNSD_IT0_EE, symObjAddr: 0x54D4, symBinAddr: 0x10000898C, symSize: 0x48 }
  - { offsetInCU: 0xD776, offset: 0xD776, size: 0x8, addend: 0x0, symName: __ZNSt3__112__to_addressB7v160006INS_16reverse_iteratorIPNS_6vectorINS_4pairINS_12basic_stringIcNS_11char_traitsIcEENS_9allocatorIcEEEEiEENS7_ISA_EEEEEEvEENS_5decayIDTclsr19__to_address_helperIT_EE6__callclsr3stdE7declvalIRKSG_EEEEE4typeESI_, symObjAddr: 0x5548, symBinAddr: 0x100008A00, symSize: 0x24 }
  - { offsetInCU: 0xD7D5, offset: 0xD7D5, size: 0x8, addend: 0x0, symName: __ZNSt3__118__debug_db_erase_cB7v160006INS_6vectorINS1_INS_4pairINS_12basic_stringIcNS_11char_traitsIcEENS_9allocatorIcEEEEiEENS6_IS9_EEEENS6_ISB_EEEEEEvPT_, symObjAddr: 0x58C8, symBinAddr: 0x100008D80, symSize: 0x10 }
  - { offsetInCU: 0xD806, offset: 0xD806, size: 0x8, addend: 0x0, symName: __ZNSt3__1eqB7v160006IPNS_6vectorINS_4pairINS_12basic_stringIcNS_11char_traitsIcEENS_9allocatorIcEEEEiEENS6_IS9_EEEEEEbRKNS_11__wrap_iterIT_EESH_, symObjAddr: 0x5A04, symBinAddr: 0x100008EBC, symSize: 0x48 }
  - { offsetInCU: 0xD849, offset: 0xD849, size: 0x8, addend: 0x0, symName: __ZNSt3__1eqB7v160006IPKNS_4pairINS_12basic_stringIcNS_11char_traitsIcEENS_9allocatorIcEEEEiEEEEbRKNS_11__wrap_iterIT_EESF_, symObjAddr: 0x5A64, symBinAddr: 0x100008F1C, symSize: 0x48 }
  - { offsetInCU: 0xD88C, offset: 0xD88C, size: 0x8, addend: 0x0, symName: __ZNSt3__1eqB7v160006IPNS_4pairIiNS_12basic_stringIcNS_11char_traitsIcEENS_9allocatorIcEEEEEEEEbRKNS_11__wrap_iterIT_EESE_, symObjAddr: 0x6278, symBinAddr: 0x100009730, symSize: 0x48 }
  - { offsetInCU: 0xD8CF, offset: 0xD8CF, size: 0x8, addend: 0x0, symName: __ZNSt3__116__pad_and_outputB7v160006IcNS_11char_traitsIcEEEENS_19ostreambuf_iteratorIT_T0_EES6_PKS4_S8_S8_RNS_8ios_baseES4_, symObjAddr: 0x68E4, symBinAddr: 0x100009D9C, symSize: 0x240 }
  - { offsetInCU: 0xD99E, offset: 0xD99E, size: 0x8, addend: 0x0, symName: __ZNSt3__19use_facetB7v160006INS_5ctypeIcEEEERKT_RKNS_6localeE, symObjAddr: 0x6E44, symBinAddr: 0x10000A2FC, symSize: 0x2C }
  - { offsetInCU: 0xDE6D, offset: 0xDE6D, size: 0x8, addend: 0x0, symName: __ZNSt3__118__constexpr_strlenB7v160006EPKc, symObjAddr: 0x6EA8, symBinAddr: 0x10000A360, symSize: 0x24 }
  - { offsetInCU: 0xDE99, offset: 0xDE99, size: 0x8, addend: 0x0, symName: __ZNSt3__17getlineB7v160006IcNS_11char_traitsIcEENS_9allocatorIcEEEERNS_13basic_istreamIT_T0_EES9_RNS_12basic_stringIS6_S7_T1_EES6_, symObjAddr: 0x6ECC, symBinAddr: 0x10000A384, symSize: 0x238 }
  - { offsetInCU: 0xDF57, offset: 0xDF57, size: 0x8, addend: 0x0, symName: __ZNSt3__125__debug_db_invalidate_allB7v160006INS_12basic_stringIcNS_11char_traitsIcEENS_9allocatorIcEEEEEEvPT_, symObjAddr: 0x7394, symBinAddr: 0x10000A84C, symSize: 0x10 }
  - { offsetInCU: 0xE1BD, offset: 0xE1BD, size: 0x8, addend: 0x0, symName: __ZNSt3__110__str_findB7v160006IcmNS_11char_traitsIcEELm18446744073709551615EEET0_PKT_S3_S6_S3_S3_, symObjAddr: 0x75B8, symBinAddr: 0x10000AA70, symSize: 0xE4 }
  - { offsetInCU: 0xE264, offset: 0xE264, size: 0x8, addend: 0x0, symName: __ZNSt3__118__search_substringB7v160006IcNS_11char_traitsIcEEEEPKT_S5_S5_S5_S5_, symObjAddr: 0x769C, symBinAddr: 0x10000AB54, symSize: 0x154 }
  - { offsetInCU: 0xE2FE, offset: 0xE2FE, size: 0x8, addend: 0x0, symName: __ZNSt3__123__constexpr_char_memchrB7v160006EPKcim, symObjAddr: 0x7860, symBinAddr: 0x10000AD18, symSize: 0x34 }
  - { offsetInCU: 0xE346, offset: 0xE346, size: 0x8, addend: 0x0, symName: __ZNSt3__118__debug_db_erase_cB7v160006INS_6vectorINS_4pairIiNS_12basic_stringIcNS_11char_traitsIcEENS_9allocatorIcEEEEEENS6_IS9_EEEEEEvPT_, symObjAddr: 0x7AD8, symBinAddr: 0x10000AF90, symSize: 0x10 }
  - { offsetInCU: 0xE377, offset: 0xE377, size: 0x8, addend: 0x0, symName: __ZNSt3__112__to_addressB7v160006INS_4pairIiNS_12basic_stringIcNS_11char_traitsIcEENS_9allocatorIcEEEEEEEEPT_SA_, symObjAddr: 0x7C1C, symBinAddr: 0x10000B0D4, symSize: 0x14 }
  - { offsetInCU: 0xE3AC, offset: 0xE3AC, size: 0x8, addend: 0x0, symName: __ZNSt3__19push_heapB7v160006INS_11__wrap_iterIPNS_4pairIiNS_12basic_stringIcNS_11char_traitsIcEENS_9allocatorIcEEEEEEEENS_7greaterIS9_EEEEvT_SE_T0_, symObjAddr: 0x7F7C, symBinAddr: 0x10000B434, symSize: 0x40 }
  - { offsetInCU: 0xE402, offset: 0xE402, size: 0x8, addend: 0x0, symName: __ZNSt3__119__allocate_at_leastB7v160006INS_9allocatorINS_4pairIiNS_12basic_stringIcNS_11char_traitsIcEENS1_IcEEEEEEEEEENS_19__allocation_resultINS_16allocator_traitsIT_E7pointerEEERSC_m, symObjAddr: 0x8790, symBinAddr: 0x10000BC48, symSize: 0x40 }
  - { offsetInCU: 0xE445, offset: 0xE445, size: 0x8, addend: 0x0, symName: __ZNSt3__142__uninitialized_allocator_move_if_noexceptB7v160006INS_9allocatorINS_4pairIiNS_12basic_stringIcNS_11char_traitsIcEENS1_IcEEEEEEEENS_16reverse_iteratorIPS8_EESC_SC_EET2_RT_T0_T1_SD_, symObjAddr: 0x8960, symBinAddr: 0x10000BE18, symSize: 0x12C }
  - { offsetInCU: 0xE4E5, offset: 0xE4E5, size: 0x8, addend: 0x0, symName: __ZNSt3__14swapB7v160006IPNS_4pairIiNS_12basic_stringIcNS_11char_traitsIcEENS_9allocatorIcEEEEEEEENS_9enable_ifIXaasr21is_move_constructibleIT_EE5valuesr18is_move_assignableISB_EE5valueEvE4typeERSB_SE_, symObjAddr: 0x8AD8, symBinAddr: 0x10000BF90, symSize: 0x3C }
  - { offsetInCU: 0xE536, offset: 0xE536, size: 0x8, addend: 0x0, symName: __ZNSt3__125__debug_db_invalidate_allB7v160006INS_6vectorINS_4pairIiNS_12basic_stringIcNS_11char_traitsIcEENS_9allocatorIcEEEEEENS6_IS9_EEEEEEvPT_, symObjAddr: 0x8BC0, symBinAddr: 0x10000C078, symSize: 0x10 }
  - { offsetInCU: 0xE567, offset: 0xE567, size: 0x8, addend: 0x0, symName: __ZNSt3__122__make_exception_guardB7v160006INS_29_AllocatorDestroyRangeReverseINS_9allocatorINS_4pairIiNS_12basic_stringIcNS_11char_traitsIcEENS2_IcEEEEEEEENS_16reverse_iteratorIPS9_EEEEEENS_28__exception_guard_exceptionsIT_EESG_, symObjAddr: 0x8BD0, symBinAddr: 0x10000C088, symSize: 0x4C }
  - { offsetInCU: 0xE59D, offset: 0xE59D, size: 0x8, addend: 0x0, symName: __ZNSt3__1neB7v160006IPNS_4pairIiNS_12basic_stringIcNS_11char_traitsIcEENS_9allocatorIcEEEEEES9_EEbRKNS_16reverse_iteratorIT_EERKNSA_IT0_EE, symObjAddr: 0x8C60, symBinAddr: 0x10000C118, symSize: 0x48 }
  - { offsetInCU: 0xE5E9, offset: 0xE5E9, size: 0x8, addend: 0x0, symName: __ZNSt3__112__to_addressB7v160006INS_16reverse_iteratorIPNS_4pairIiNS_12basic_stringIcNS_11char_traitsIcEENS_9allocatorIcEEEEEEEEvEENS_5decayIDTclsr19__to_address_helperIT_EE6__callclsr3stdE7declvalIRKSD_EEEEE4typeESF_, symObjAddr: 0x8CA8, symBinAddr: 0x10000C160, symSize: 0x24 }
  - { offsetInCU: 0xE648, offset: 0xE648, size: 0x8, addend: 0x0, symName: __ZNSt3__119__allocator_destroyB7v160006INS_9allocatorINS_4pairIiNS_12basic_stringIcNS_11char_traitsIcEENS1_IcEEEEEEEENS_16reverse_iteratorINSA_IPS8_EEEESD_EEvRT_T0_T1_, symObjAddr: 0x8F58, symBinAddr: 0x10000C410, symSize: 0x70 }
  - { offsetInCU: 0xE6AD, offset: 0xE6AD, size: 0x8, addend: 0x0, symName: __ZNSt3__1neB7v160006INS_16reverse_iteratorIPNS_4pairIiNS_12basic_stringIcNS_11char_traitsIcEENS_9allocatorIcEEEEEEEESB_EEbRKNS1_IT_EERKNS1_IT0_EE, symObjAddr: 0x9004, symBinAddr: 0x10000C4BC, symSize: 0x60 }
  - { offsetInCU: 0xE6F9, offset: 0xE6F9, size: 0x8, addend: 0x0, symName: __ZNSt3__112__to_addressB7v160006INS_16reverse_iteratorINS1_IPNS_4pairIiNS_12basic_stringIcNS_11char_traitsIcEENS_9allocatorIcEEEEEEEEEEvEENS_5decayIDTclsr19__to_address_helperIT_EE6__callclsr3stdE7declvalIRKSE_EEEEE4typeESG_, symObjAddr: 0x9064, symBinAddr: 0x10000C51C, symSize: 0x24 }
  - { offsetInCU: 0xE758, offset: 0xE758, size: 0x8, addend: 0x0, symName: __ZNSt3__111__push_heapB7v160006INS_17_ClassicAlgPolicyENS_11__wrap_iterIPNS_4pairIiNS_12basic_stringIcNS_11char_traitsIcEENS_9allocatorIcEEEEEEEENS_7greaterISA_EEEEvT0_SF_RT1_, symObjAddr: 0x93CC, symBinAddr: 0x10000C884, symSize: 0x5C }
  - { offsetInCU: 0xE7C5, offset: 0xE7C5, size: 0x8, addend: 0x0, symName: __ZNSt3__1miB7v160006IPNS_4pairIiNS_12basic_stringIcNS_11char_traitsIcEENS_9allocatorIcEEEEEES9_EEDTmicldtfp_4baseEcldtfp0_4baseEERKNS_11__wrap_iterIT_EERKNSB_IT0_EE, symObjAddr: 0x9428, symBinAddr: 0x10000C8E0, symSize: 0x48 }
  - { offsetInCU: 0xE811, offset: 0xE811, size: 0x8, addend: 0x0, symName: __ZNSt3__19__sift_upB7v160006INS_17_ClassicAlgPolicyERNS_7greaterINS_4pairIiNS_12basic_stringIcNS_11char_traitsIcEENS_9allocatorIcEEEEEEEENS_11__wrap_iterIPSA_EEEEvT1_SG_OT0_NS_15iterator_traitsISG_E15difference_typeE, symObjAddr: 0x9470, symBinAddr: 0x10000C928, symSize: 0x19C }
  - { offsetInCU: 0xE97B, offset: 0xE97B, size: 0x8, addend: 0x0, symName: __ZNSt3__1gtB7v160006IiNS_12basic_stringIcNS_11char_traitsIcEENS_9allocatorIcEEEEEEbRKNS_4pairIT_T0_EESC_, symObjAddr: 0x9734, symBinAddr: 0x10000CBEC, symSize: 0x30 }
  - { offsetInCU: 0xE9CA, offset: 0xE9CA, size: 0x8, addend: 0x0, symName: __ZNSt3__1ltB7v160006IiNS_12basic_stringIcNS_11char_traitsIcEENS_9allocatorIcEEEEEEbRKNS_4pairIT_T0_EESC_, symObjAddr: 0x9764, symBinAddr: 0x10000CC1C, symSize: 0xA0 }
  - { offsetInCU: 0xEA19, offset: 0xEA19, size: 0x8, addend: 0x0, symName: __ZNSt3__1ltB7v160006IcNS_11char_traitsIcEENS_9allocatorIcEEEEbRKNS_12basic_stringIT_T0_T1_EESB_, symObjAddr: 0x9804, symBinAddr: 0x10000CCBC, symSize: 0x38 }
  - { offsetInCU: 0xEA95, offset: 0xEA95, size: 0x8, addend: 0x0, symName: __ZNSt3__18pop_heapB7v160006INS_11__wrap_iterIPNS_4pairIiNS_12basic_stringIcNS_11char_traitsIcEENS_9allocatorIcEEEEEEEENS_7greaterIS9_EEEEvT_SE_T0_, symObjAddr: 0x9D24, symBinAddr: 0x10000D1DC, symSize: 0x58 }
  - { offsetInCU: 0xEAF9, offset: 0xEAF9, size: 0x8, addend: 0x0, symName: __ZNSt3__110__pop_heapB7v160006INS_17_ClassicAlgPolicyENS_7greaterINS_4pairIiNS_12basic_stringIcNS_11char_traitsIcEENS_9allocatorIcEEEEEEEENS_11__wrap_iterIPSA_EEEEvT1_SF_RT0_NS_15iterator_traitsISF_E15difference_typeE, symObjAddr: 0x9DA8, symBinAddr: 0x10000D260, symSize: 0x164 }
  - { offsetInCU: 0xEBA3, offset: 0xEBA3, size: 0x8, addend: 0x0, symName: __ZNSt3__1miB7v160006IPKNS_4pairIiNS_12basic_stringIcNS_11char_traitsIcEENS_9allocatorIcEEEEEEPS8_EEDTmicldtfp_4baseEcldtfp0_4baseEERKNS_11__wrap_iterIT_EERKNSD_IT0_EE, symObjAddr: 0xA250, symBinAddr: 0x10000D708, symSize: 0x48 }
  - { offsetInCU: 0xEC22, offset: 0xEC22, size: 0x8, addend: 0x0, symName: __ZNSt3__113move_backwardB7v160006IPNS_4pairIiNS_12basic_stringIcNS_11char_traitsIcEENS_9allocatorIcEEEEEES9_EET0_T_SB_SA_, symObjAddr: 0xA95C, symBinAddr: 0x10000DE14, symSize: 0x40 }
  - { offsetInCU: 0xEC7C, offset: 0xEC7C, size: 0x8, addend: 0x0, symName: __ZNSt3__115__move_backwardB7v160006INS_17_ClassicAlgPolicyEPNS_4pairIiNS_12basic_stringIcNS_11char_traitsIcEENS_9allocatorIcEEEEEESA_SA_EENS2_IT0_T2_EESB_T1_SC_, symObjAddr: 0xA99C, symBinAddr: 0x10000DE54, symSize: 0x44 }
  - { offsetInCU: 0xECE8, offset: 0xECE8, size: 0x8, addend: 0x0, symName: __ZNSt3__123__dispatch_copy_or_moveB7v160006INS_17_ClassicAlgPolicyENS_20__move_backward_loopIS1_EENS_23__move_backward_trivialEPNS_4pairIiNS_12basic_stringIcNS_11char_traitsIcEENS_9allocatorIcEEEEEESD_SD_EENS5_IT2_T4_EESE_T3_SF_, symObjAddr: 0xA9E0, symBinAddr: 0x10000DE98, symSize: 0x44 }
  - { offsetInCU: 0xED66, offset: 0xED66, size: 0x8, addend: 0x0, symName: __ZNSt3__121__unwrap_and_dispatchB7v160006INS_10__overloadINS_20__move_backward_loopINS_17_ClassicAlgPolicyEEENS_23__move_backward_trivialEEEPNS_4pairIiNS_12basic_stringIcNS_11char_traitsIcEENS_9allocatorIcEEEEEESF_SF_Li0EEENS7_IT0_T2_EESG_T1_SH_, symObjAddr: 0xAA24, symBinAddr: 0x10000DEDC, symSize: 0xB4 }
  - { offsetInCU: 0xEDF4, offset: 0xEDF4, size: 0x8, addend: 0x0, symName: __ZNSt3__114__unwrap_rangeB7v160006IPNS_4pairIiNS_12basic_stringIcNS_11char_traitsIcEENS_9allocatorIcEEEEEES9_EENS1_IT0_SA_EET_SC_, symObjAddr: 0xAAD8, symBinAddr: 0x10000DF90, symSize: 0x60 }
  - { offsetInCU: 0xEF66, offset: 0xEF66, size: 0x8, addend: 0x0, symName: __ZNSt3__113__unwrap_iterB7v160006IPNS_4pairIiNS_12basic_stringIcNS_11char_traitsIcEENS_9allocatorIcEEEEEENS_18__unwrap_iter_implIS9_Lb1EEELi0EEEDTclsrT0_8__unwrapclsr3stdE7declvalIT_EEEESD_, symObjAddr: 0xABDC, symBinAddr: 0x10000E094, symSize: 0x24 }
  - { offsetInCU: 0xEFAA, offset: 0xEFAA, size: 0x8, addend: 0x0, symName: __ZNSt3__19make_pairB7v160006IPNS_4pairIiNS_12basic_stringIcNS_11char_traitsIcEENS_9allocatorIcEEEEEES9_EENS1_INS_18__unwrap_ref_decayIT_E4typeENSA_IT0_E4typeEEEOSB_OSE_, symObjAddr: 0xAC00, symBinAddr: 0x10000E0B8, symSize: 0x38 }
  - { offsetInCU: 0xEFF9, offset: 0xEFF9, size: 0x8, addend: 0x0, symName: __ZNSt3__114__rewrap_rangeB7v160006IPNS_4pairIiNS_12basic_stringIcNS_11char_traitsIcEENS_9allocatorIcEEEEEES9_EET_SA_T0_, symObjAddr: 0xAC38, symBinAddr: 0x10000E0F0, symSize: 0x2C }
  - { offsetInCU: 0xF045, offset: 0xF045, size: 0x8, addend: 0x0, symName: __ZNSt3__113__rewrap_iterB7v160006IPNS_4pairIiNS_12basic_stringIcNS_11char_traitsIcEENS_9allocatorIcEEEEEES9_NS_18__unwrap_iter_implIS9_Lb1EEEEET_SC_T0_, symObjAddr: 0xAC64, symBinAddr: 0x10000E11C, symSize: 0x3C }
  - { offsetInCU: 0xF0ED, offset: 0xF0ED, size: 0x8, addend: 0x0, symName: __ZNSt3__14moveB7v160006IPNS_4pairIiNS_12basic_stringIcNS_11char_traitsIcEENS_9allocatorIcEEEEEES9_EET0_T_SB_SA_, symObjAddr: 0xADC8, symBinAddr: 0x10000E280, symSize: 0x40 }
  - { offsetInCU: 0xF147, offset: 0xF147, size: 0x8, addend: 0x0, symName: __ZNSt3__16__moveB7v160006INS_17_ClassicAlgPolicyEPNS_4pairIiNS_12basic_stringIcNS_11char_traitsIcEENS_9allocatorIcEEEEEESA_SA_EENS2_IT0_T2_EESB_T1_SC_, symObjAddr: 0xAF38, symBinAddr: 0x10000E3F0, symSize: 0x44 }
  - { offsetInCU: 0xF1B3, offset: 0xF1B3, size: 0x8, addend: 0x0, symName: __ZNSt3__123__dispatch_copy_or_moveB7v160006INS_17_ClassicAlgPolicyENS_11__move_loopIS1_EENS_14__move_trivialEPNS_4pairIiNS_12basic_stringIcNS_11char_traitsIcEENS_9allocatorIcEEEEEESD_SD_EENS5_IT2_T4_EESE_T3_SF_, symObjAddr: 0xAF7C, symBinAddr: 0x10000E434, symSize: 0x44 }
  - { offsetInCU: 0xF231, offset: 0xF231, size: 0x8, addend: 0x0, symName: __ZNSt3__121__unwrap_and_dispatchB7v160006INS_10__overloadINS_11__move_loopINS_17_ClassicAlgPolicyEEENS_14__move_trivialEEEPNS_4pairIiNS_12basic_stringIcNS_11char_traitsIcEENS_9allocatorIcEEEEEESF_SF_Li0EEENS7_IT0_T2_EESG_T1_SH_, symObjAddr: 0xAFC0, symBinAddr: 0x10000E478, symSize: 0xB4 }
  - { offsetInCU: 0xF311, offset: 0xF311, size: 0x8, addend: 0x0, symName: __ZNSt3__18distanceB7v160006INS_13move_iteratorIPNS_4pairIiNS_12basic_stringIcNS_11char_traitsIcEENS_9allocatorIcEEEEEEEEEENS_15iterator_traitsIT_E15difference_typeESD_SD_, symObjAddr: 0xB104, symBinAddr: 0x10000E5BC, symSize: 0x3C }
  - { offsetInCU: 0xF354, offset: 0xF354, size: 0x8, addend: 0x0, symName: __ZNSt3__110__distanceB7v160006INS_13move_iteratorIPNS_4pairIiNS_12basic_stringIcNS_11char_traitsIcEENS_9allocatorIcEEEEEEEEEENS_15iterator_traitsIT_E15difference_typeESD_SD_NS_26random_access_iterator_tagE, symObjAddr: 0xB1E0, symBinAddr: 0x10000E698, symSize: 0x30 }
  - { offsetInCU: 0xF3A1, offset: 0xF3A1, size: 0x8, addend: 0x0, symName: __ZNSt3__1miB7v160006IPNS_4pairIiNS_12basic_stringIcNS_11char_traitsIcEENS_9allocatorIcEEEEEES9_EEDTmicldtfp_4baseEcldtfp0_4baseEERKNS_13move_iteratorIT_EERKNSB_IT0_EE, symObjAddr: 0xB210, symBinAddr: 0x10000E6C8, symSize: 0x48 }
  - { offsetInCU: 0xF3F0, offset: 0xF3F0, size: 0x8, addend: 0x0, symName: __ZNSt3__142__uninitialized_allocator_move_if_noexceptB7v160006INS_9allocatorINS_4pairIiNS_12basic_stringIcNS_11char_traitsIcEENS1_IcEEEEEEEEPS8_SA_SA_EET2_RT_T0_T1_SB_, symObjAddr: 0xB2F4, symBinAddr: 0x10000E7AC, symSize: 0xF4 }
  - { offsetInCU: 0xF48E, offset: 0xF48E, size: 0x8, addend: 0x0, symName: __ZNSt3__122__make_exception_guardB7v160006INS_29_AllocatorDestroyRangeReverseINS_9allocatorINS_4pairIiNS_12basic_stringIcNS_11char_traitsIcEENS2_IcEEEEEEEEPS9_EEEENS_28__exception_guard_exceptionsIT_EESE_, symObjAddr: 0xB3E8, symBinAddr: 0x10000E8A0, symSize: 0x4C }
  - { offsetInCU: 0xF4C4, offset: 0xF4C4, size: 0x8, addend: 0x0, symName: __ZNSt3__119__allocator_destroyB7v160006INS_9allocatorINS_4pairIiNS_12basic_stringIcNS_11char_traitsIcEENS1_IcEEEEEEEENS_16reverse_iteratorIPS8_EESC_EEvRT_T0_T1_, symObjAddr: 0xB614, symBinAddr: 0x10000EACC, symSize: 0x70 }
  - { offsetInCU: 0xF527, offset: 0xF527, size: 0x8, addend: 0x0, symName: __ZNSt3__119__debug_db_insert_cB7v160006INS_6vectorINS_4pairIiNS_12basic_stringIcNS_11char_traitsIcEENS_9allocatorIcEEEEEENS6_IS9_EEEEEEvPT_, symObjAddr: 0xB778, symBinAddr: 0x10000EC30, symSize: 0x10 }
  - { offsetInCU: 0xFA7F, offset: 0xFA7F, size: 0x8, addend: 0x0, symName: __ZSt28__throw_bad_array_new_lengthB7v160006v, symObjAddr: 0x2BDC, symBinAddr: 0x100006094, symSize: 0x34 }
  - { offsetInCU: 0xFF7D, offset: 0xFF7D, size: 0x8, addend: 0x0, symName: __ZNSt3__16vectorINS_4pairINS_12basic_stringIcNS_11char_traitsIcEENS_9allocatorIcEEEEiEENS5_IS8_EEE26__swap_out_circular_bufferERNS_14__split_bufferIS8_RS9_EE, symObjAddr: 0x2434, symBinAddr: 0x1000058EC, symSize: 0x118 }
  - { offsetInCU: 0x1022E, offset: 0x1022E, size: 0x8, addend: 0x0, symName: __ZNKSt3__16chrono15__duration_castINS0_8durationIxNS_5ratioILl1ELl1000000000EEEEENS2_IdNS3_ILl1ELl1EEEEES4_Lb1ELb0EEclB7v160006ERKS5_, symObjAddr: 0x60B8, symBinAddr: 0x100009570, symSize: 0x50 }
  - { offsetInCU: 0x10513, offset: 0x10513, size: 0x8, addend: 0x0, symName: __ZNSt3__16vectorINS_4pairIiNS_12basic_stringIcNS_11char_traitsIcEENS_9allocatorIcEEEEEENS5_IS8_EEE26__swap_out_circular_bufferERNS_14__split_bufferIS8_RS9_EE, symObjAddr: 0x8428, symBinAddr: 0x10000B8E0, symSize: 0x118 }
  - { offsetInCU: 0x105BB, offset: 0x105BB, size: 0x8, addend: 0x0, symName: __ZNSt3__16vectorINS_4pairIiNS_12basic_stringIcNS_11char_traitsIcEENS_9allocatorIcEEEEEENS5_IS8_EEE26__swap_out_circular_bufferERNS_14__split_bufferIS8_RS9_EEPS8_, symObjAddr: 0xA710, symBinAddr: 0x10000DBC8, symSize: 0x154 }
  - { offsetInCU: 0x12821, offset: 0x12821, size: 0x8, addend: 0x0, symName: __Z14processLogFileRKNSt3__112basic_stringIcNS_11char_traitsIcEENS_9allocatorIcEEEER9HashTable, symObjAddr: 0x0, symBinAddr: 0x1000034B8, symSize: 0x268 }
  - { offsetInCU: 0x129D9, offset: 0x129D9, size: 0x8, addend: 0x0, symName: __ZNSt3__114basic_ifstreamIcNS_11char_traitsIcEEEC1ERKNS_12basic_stringIcS2_NS_9allocatorIcEEEEj, symObjAddr: 0x268, symBinAddr: 0x100003720, symSize: 0x16C }
  - { offsetInCU: 0x12A23, offset: 0x12A23, size: 0x8, addend: 0x0, symName: __ZNKSt3__19basic_iosIcNS_11char_traitsIcEEEntB7v160006Ev, symObjAddr: 0x3D4, symBinAddr: 0x10000388C, symSize: 0x28 }
  - { offsetInCU: 0x12A49, offset: 0x12A49, size: 0x8, addend: 0x0, symName: __ZNSt3__113basic_ostreamIcNS_11char_traitsIcEEElsB7v160006EPFRS3_S4_E, symObjAddr: 0x490, symBinAddr: 0x100003948, symSize: 0x2C }
  - { offsetInCU: 0x12A7D, offset: 0x12A7D, size: 0x8, addend: 0x0, symName: __ZNSt3__112basic_stringIcNS_11char_traitsIcEENS_9allocatorIcEEEC1B7v160006Ev, symObjAddr: 0x514, symBinAddr: 0x1000039CC, symSize: 0x2C }
  - { offsetInCU: 0x12AA7, offset: 0x12AA7, size: 0x8, addend: 0x0, symName: __ZNKSt3__19basic_iosIcNS_11char_traitsIcEEEcvbB7v160006Ev, symObjAddr: 0x59C, symBinAddr: 0x100003A54, symSize: 0x2C }
  - { offsetInCU: 0x12ACD, offset: 0x12ACD, size: 0x8, addend: 0x0, symName: __ZNKSt3__112basic_stringIcNS_11char_traitsIcEENS_9allocatorIcEEE4findB7v160006EPKcm, symObjAddr: 0x5C8, symBinAddr: 0x100003A80, symSize: 0x74 }
  - { offsetInCU: 0x12B13, offset: 0x12B13, size: 0x8, addend: 0x0, symName: __ZNKSt3__112basic_stringIcNS_11char_traitsIcEENS_9allocatorIcEEE6substrB7v160006Emm, symObjAddr: 0x63C, symBinAddr: 0x100003AF4, symSize: 0x68 }
  - { offsetInCU: 0x12C04, offset: 0x12C04, size: 0x8, addend: 0x0, symName: __ZN9HashTable3getERKNSt3__112basic_stringIcNS0_11char_traitsIcEENS0_9allocatorIcEEEE, symObjAddr: 0x6A4, symBinAddr: 0x100003B5C, symSize: 0xC4 }
  - { offsetInCU: 0x12C99, offset: 0x12C99, size: 0x8, addend: 0x0, symName: __ZN9HashTable6insertERKNSt3__112basic_stringIcNS0_11char_traitsIcEENS0_9allocatorIcEEEEi, symObjAddr: 0x768, symBinAddr: 0x100003C20, symSize: 0xDC }
  - { offsetInCU: 0x12D3C, offset: 0x12D3C, size: 0x8, addend: 0x0, symName: __ZNSt3__114basic_ifstreamIcNS_11char_traitsIcEEE5closeEv, symObjAddr: 0x844, symBinAddr: 0x100003CFC, symSize: 0x58 }
  - { offsetInCU: 0x12D69, offset: 0x12D69, size: 0x8, addend: 0x0, symName: __ZNSt3__114basic_ifstreamIcNS_11char_traitsIcEEED1Ev, symObjAddr: 0x89C, symBinAddr: 0x100003D54, symSize: 0x40 }
  - { offsetInCU: 0x12D95, offset: 0x12D95, size: 0x8, addend: 0x0, symName: __Z9findTop10R9HashTableRNSt3__16vectorINS1_4pairIiNS1_12basic_stringIcNS1_11char_traitsIcEENS1_9allocatorIcEEEEEENS7_ISA_EEEE, symObjAddr: 0x8DC, symBinAddr: 0x100003D94, symSize: 0x224 }
  - { offsetInCU: 0x12E97, offset: 0x12E97, size: 0x8, addend: 0x0, symName: __ZN9HashTable16get_all_elementsEv, symObjAddr: 0xB00, symBinAddr: 0x100003FB8, symSize: 0x3C }
  - { offsetInCU: 0x12F10, offset: 0x12F10, size: 0x8, addend: 0x0, symName: __ZNSt3__114priority_queueINS_4pairIiNS_12basic_stringIcNS_11char_traitsIcEENS_9allocatorIcEEEEEENS_6vectorIS8_NS5_IS8_EEEENS_7greaterIS8_EEEC1B7v160006Ev, symObjAddr: 0xB3C, symBinAddr: 0x100003FF4, symSize: 0x2C }
  - { offsetInCU: 0x12F3A, offset: 0x12F3A, size: 0x8, addend: 0x0, symName: __ZNSt3__16vectorINS0_INS_4pairINS_12basic_stringIcNS_11char_traitsIcEENS_9allocatorIcEEEEiEENS5_IS8_EEEENS5_ISA_EEE5beginB7v160006Ev, symObjAddr: 0xB68, symBinAddr: 0x100004020, symSize: 0x30 }
  - { offsetInCU: 0x12F62, offset: 0x12F62, size: 0x8, addend: 0x0, symName: __ZNSt3__16vectorINS0_INS_4pairINS_12basic_stringIcNS_11char_traitsIcEENS_9allocatorIcEEEEiEENS5_IS8_EEEENS5_ISA_EEE3endB7v160006Ev, symObjAddr: 0xB98, symBinAddr: 0x100004050, symSize: 0x30 }
  - { offsetInCU: 0x12F8A, offset: 0x12F8A, size: 0x8, addend: 0x0, symName: __ZNKSt3__111__wrap_iterIPNS_6vectorINS_4pairINS_12basic_stringIcNS_11char_traitsIcEENS_9allocatorIcEEEEiEENS6_IS9_EEEEEdeB7v160006Ev, symObjAddr: 0xBFC, symBinAddr: 0x1000040B4, symSize: 0x18 }
  - { offsetInCU: 0x12FB0, offset: 0x12FB0, size: 0x8, addend: 0x0, symName: __ZNKSt3__16vectorINS_4pairINS_12basic_stringIcNS_11char_traitsIcEENS_9allocatorIcEEEEiEENS5_IS8_EEE5beginB7v160006Ev, symObjAddr: 0xC14, symBinAddr: 0x1000040CC, symSize: 0x30 }
  - { offsetInCU: 0x12FD8, offset: 0x12FD8, size: 0x8, addend: 0x0, symName: __ZNKSt3__16vectorINS_4pairINS_12basic_stringIcNS_11char_traitsIcEENS_9allocatorIcEEEEiEENS5_IS8_EEE3endB7v160006Ev, symObjAddr: 0xC44, symBinAddr: 0x1000040FC, symSize: 0x30 }
  - { offsetInCU: 0x13000, offset: 0x13000, size: 0x8, addend: 0x0, symName: __ZNKSt3__111__wrap_iterIPKNS_4pairINS_12basic_stringIcNS_11char_traitsIcEENS_9allocatorIcEEEEiEEEdeB7v160006Ev, symObjAddr: 0xCA8, symBinAddr: 0x100004160, symSize: 0x18 }
  - { offsetInCU: 0x13026, offset: 0x13026, size: 0x8, addend: 0x0, symName: __ZNSt3__114priority_queueINS_4pairIiNS_12basic_stringIcNS_11char_traitsIcEENS_9allocatorIcEEEEEENS_6vectorIS8_NS5_IS8_EEEENS_7greaterIS8_EEE4pushEOS8_, symObjAddr: 0xCC0, symBinAddr: 0x100004178, symSize: 0x58 }
  - { offsetInCU: 0x1305D, offset: 0x1305D, size: 0x8, addend: 0x0, symName: __ZNSt3__14pairIiNS_12basic_stringIcNS_11char_traitsIcEENS_9allocatorIcEEEEED1Ev, symObjAddr: 0xD58, symBinAddr: 0x100004210, symSize: 0x2C }
  - { offsetInCU: 0x13089, offset: 0x13089, size: 0x8, addend: 0x0, symName: __ZNKSt3__114priority_queueINS_4pairIiNS_12basic_stringIcNS_11char_traitsIcEENS_9allocatorIcEEEEEENS_6vectorIS8_NS5_IS8_EEEENS_7greaterIS8_EEE4sizeB7v160006Ev, symObjAddr: 0xD84, symBinAddr: 0x10000423C, symSize: 0x24 }
  - { offsetInCU: 0x130AF, offset: 0x130AF, size: 0x8, addend: 0x0, symName: __ZNSt3__114priority_queueINS_4pairIiNS_12basic_stringIcNS_11char_traitsIcEENS_9allocatorIcEEEEEENS_6vectorIS8_NS5_IS8_EEEENS_7greaterIS8_EEE3popEv, symObjAddr: 0xDA8, symBinAddr: 0x100004260, symSize: 0x50 }
  - { offsetInCU: 0x130D7, offset: 0x130D7, size: 0x8, addend: 0x0, symName: __ZNSt3__111__wrap_iterIPKNS_4pairINS_12basic_stringIcNS_11char_traitsIcEENS_9allocatorIcEEEEiEEEppB7v160006Ev, symObjAddr: 0xDF8, symBinAddr: 0x1000042B0, symSize: 0x20 }
  - { offsetInCU: 0x130FD, offset: 0x130FD, size: 0x8, addend: 0x0, symName: __ZNSt3__111__wrap_iterIPNS_6vectorINS_4pairINS_12basic_stringIcNS_11char_traitsIcEENS_9allocatorIcEEEEiEENS6_IS9_EEEEEppB7v160006Ev, symObjAddr: 0xE18, symBinAddr: 0x1000042D0, symSize: 0x20 }
  - { offsetInCU: 0x13123, offset: 0x13123, size: 0x8, addend: 0x0, symName: __ZNKSt3__114priority_queueINS_4pairIiNS_12basic_stringIcNS_11char_traitsIcEENS_9allocatorIcEEEEEENS_6vectorIS8_NS5_IS8_EEEENS_7greaterIS8_EEE5emptyB7v160006Ev, symObjAddr: 0xE38, symBinAddr: 0x1000042F0, symSize: 0x28 }
  - { offsetInCU: 0x13149, offset: 0x13149, size: 0x8, addend: 0x0, symName: __ZNSt3__16vectorINS_4pairIiNS_12basic_stringIcNS_11char_traitsIcEENS_9allocatorIcEEEEEENS5_IS8_EEE6insertENS_11__wrap_iterIPKS8_EERSC_, symObjAddr: 0xE60, symBinAddr: 0x100004318, symSize: 0x1F8 }
  - { offsetInCU: 0x131E1, offset: 0x131E1, size: 0x8, addend: 0x0, symName: __ZNSt3__16vectorINS_4pairIiNS_12basic_stringIcNS_11char_traitsIcEENS_9allocatorIcEEEEEENS5_IS8_EEE5beginB7v160006Ev, symObjAddr: 0x1058, symBinAddr: 0x100004510, symSize: 0x30 }
  - { offsetInCU: 0x13213, offset: 0x13213, size: 0x8, addend: 0x0, symName: __ZNSt3__111__wrap_iterIPKNS_4pairIiNS_12basic_stringIcNS_11char_traitsIcEENS_9allocatorIcEEEEEEEC1B7v160006IPS8_EERKNS0_IT_EEPNS_9enable_ifIXsr14is_convertibleISE_SA_EE5valueEvE4typeE, symObjAddr: 0x1088, symBinAddr: 0x100004540, symSize: 0x3C }
  - { offsetInCU: 0x1325E, offset: 0x1325E, size: 0x8, addend: 0x0, symName: __ZNKSt3__114priority_queueINS_4pairIiNS_12basic_stringIcNS_11char_traitsIcEENS_9allocatorIcEEEEEENS_6vectorIS8_NS5_IS8_EEEENS_7greaterIS8_EEE3topB7v160006Ev, symObjAddr: 0x10C4, symBinAddr: 0x10000457C, symSize: 0x24 }
  - { offsetInCU: 0x13284, offset: 0x13284, size: 0x8, addend: 0x0, symName: __ZNSt3__114priority_queueINS_4pairIiNS_12basic_stringIcNS_11char_traitsIcEENS_9allocatorIcEEEEEENS_6vectorIS8_NS5_IS8_EEEENS_7greaterIS8_EEED1Ev, symObjAddr: 0x10E8, symBinAddr: 0x1000045A0, symSize: 0x2C }
  - { offsetInCU: 0x132B1, offset: 0x132B1, size: 0x8, addend: 0x0, symName: __ZNSt3__16vectorINS0_INS_4pairINS_12basic_stringIcNS_11char_traitsIcEENS_9allocatorIcEEEEiEENS5_IS8_EEEENS5_ISA_EEED1B7v160006Ev, symObjAddr: 0x1114, symBinAddr: 0x1000045CC, symSize: 0x2C }
  - { offsetInCU: 0x132DB, offset: 0x132DB, size: 0x8, addend: 0x0, symName: _main, symObjAddr: 0x1140, symBinAddr: 0x1000045F8, symSize: 0x280 }
  - { offsetInCU: 0x13396, offset: 0x13396, size: 0x8, addend: 0x0, symName: __ZN9HashTableC1Ei, symObjAddr: 0x13C0, symBinAddr: 0x100004878, symSize: 0x34 }
  - { offsetInCU: 0x133D3, offset: 0x133D3, size: 0x8, addend: 0x0, symName: __ZNSt3__112basic_stringIcNS_11char_traitsIcEENS_9allocatorIcEEEC1B7v160006IDnEEPKc, symObjAddr: 0x13F4, symBinAddr: 0x1000048AC, symSize: 0x34 }
  - { offsetInCU: 0x13411, offset: 0x13411, size: 0x8, addend: 0x0, symName: __ZNSt3__16vectorINS_4pairIiNS_12basic_stringIcNS_11char_traitsIcEENS_9allocatorIcEEEEEENS5_IS8_EEEC1B7v160006Ev, symObjAddr: 0x1428, symBinAddr: 0x1000048E0, symSize: 0x2C }
  - { offsetInCU: 0x1343B, offset: 0x1343B, size: 0x8, addend: 0x0, symName: __ZNSt3__16vectorINS_4pairIiNS_12basic_stringIcNS_11char_traitsIcEENS_9allocatorIcEEEEEENS5_IS8_EEE3endB7v160006Ev, symObjAddr: 0x14DC, symBinAddr: 0x100004994, symSize: 0x30 }
  - { offsetInCU: 0x13463, offset: 0x13463, size: 0x8, addend: 0x0, symName: __ZNKSt3__111__wrap_iterIPNS_4pairIiNS_12basic_stringIcNS_11char_traitsIcEENS_9allocatorIcEEEEEEEdeB7v160006Ev, symObjAddr: 0x1540, symBinAddr: 0x1000049F8, symSize: 0x18 }
  - { offsetInCU: 0x13489, offset: 0x13489, size: 0x8, addend: 0x0, symName: __ZNSt3__111__wrap_iterIPNS_4pairIiNS_12basic_stringIcNS_11char_traitsIcEENS_9allocatorIcEEEEEEEppB7v160006Ev, symObjAddr: 0x1558, symBinAddr: 0x100004A10, symSize: 0x20 }
  - { offsetInCU: 0x134AF, offset: 0x134AF, size: 0x8, addend: 0x0, symName: __ZNKSt3__16chrono8durationIdNS_5ratioILl1ELl1EEEE5countB7v160006Ev, symObjAddr: 0x1578, symBinAddr: 0x100004A30, symSize: 0x18 }
  - { offsetInCU: 0x134D5, offset: 0x134D5, size: 0x8, addend: 0x0, symName: __ZNSt3__16vectorINS_4pairIiNS_12basic_stringIcNS_11char_traitsIcEENS_9allocatorIcEEEEEENS5_IS8_EEED1B7v160006Ev, symObjAddr: 0x1590, symBinAddr: 0x100004A48, symSize: 0x2C }
  - { offsetInCU: 0x134FF, offset: 0x134FF, size: 0x8, addend: 0x0, symName: __ZN9HashTableD1Ev, symObjAddr: 0x15BC, symBinAddr: 0x100004A74, symSize: 0x2C }
  - { offsetInCU: 0x1352B, offset: 0x1352B, size: 0x8, addend: 0x0, symName: __ZN9HashTable13hash_functionERKNSt3__112basic_stringIcNS0_11char_traitsIcEENS0_9allocatorIcEEEE, symObjAddr: 0x15E8, symBinAddr: 0x100004AA0, symSize: 0xB4 }
  - { offsetInCU: 0x135C0, offset: 0x135C0, size: 0x8, addend: 0x0, symName: __ZNSt3__16vectorINS0_INS_4pairINS_12basic_stringIcNS_11char_traitsIcEENS_9allocatorIcEEEEiEENS5_IS8_EEEENS5_ISA_EEEixB7v160006Em, symObjAddr: 0x169C, symBinAddr: 0x100004B54, symSize: 0x2C }
  - { offsetInCU: 0x135F7, offset: 0x135F7, size: 0x8, addend: 0x0, symName: __ZNSt3__16vectorINS_4pairINS_12basic_stringIcNS_11char_traitsIcEENS_9allocatorIcEEEEiEENS5_IS8_EEE5beginB7v160006Ev, symObjAddr: 0x16C8, symBinAddr: 0x100004B80, symSize: 0x30 }
  - { offsetInCU: 0x1361F, offset: 0x1361F, size: 0x8, addend: 0x0, symName: __ZNSt3__16vectorINS_4pairINS_12basic_stringIcNS_11char_traitsIcEENS_9allocatorIcEEEEiEENS5_IS8_EEE3endB7v160006Ev, symObjAddr: 0x16F8, symBinAddr: 0x100004BB0, symSize: 0x30 }
  - { offsetInCU: 0x13647, offset: 0x13647, size: 0x8, addend: 0x0, symName: __ZNKSt3__111__wrap_iterIPNS_4pairINS_12basic_stringIcNS_11char_traitsIcEENS_9allocatorIcEEEEiEEEdeB7v160006Ev, symObjAddr: 0x175C, symBinAddr: 0x100004C14, symSize: 0x18 }
  - { offsetInCU: 0x1366D, offset: 0x1366D, size: 0x8, addend: 0x0, symName: __ZNSt3__111__wrap_iterIPNS_4pairINS_12basic_stringIcNS_11char_traitsIcEENS_9allocatorIcEEEEiEEEppB7v160006Ev, symObjAddr: 0x18BC, symBinAddr: 0x100004D74, symSize: 0x20 }
  - { offsetInCU: 0x13693, offset: 0x13693, size: 0x8, addend: 0x0, symName: __ZNKSt3__112basic_stringIcNS_11char_traitsIcEENS_9allocatorIcEEE5beginB7v160006Ev, symObjAddr: 0x18DC, symBinAddr: 0x100004D94, symSize: 0x4C }
  - { offsetInCU: 0x136B9, offset: 0x136B9, size: 0x8, addend: 0x0, symName: __ZNKSt3__112basic_stringIcNS_11char_traitsIcEENS_9allocatorIcEEE3endB7v160006Ev, symObjAddr: 0x1928, symBinAddr: 0x100004DE0, symSize: 0x54 }
  - { offsetInCU: 0x136DF, offset: 0x136DF, size: 0x8, addend: 0x0, symName: __ZNKSt3__111__wrap_iterIPKcEdeB7v160006Ev, symObjAddr: 0x19B0, symBinAddr: 0x100004E68, symSize: 0x18 }
  - { offsetInCU: 0x13705, offset: 0x13705, size: 0x8, addend: 0x0, symName: __ZNSt3__111__wrap_iterIPKcEppB7v160006Ev, symObjAddr: 0x19C8, symBinAddr: 0x100004E80, symSize: 0x20 }
  - { offsetInCU: 0x1372B, offset: 0x1372B, size: 0x8, addend: 0x0, symName: __ZNKSt3__112basic_stringIcNS_11char_traitsIcEENS_9allocatorIcEEE21__make_const_iteratorB7v160006EPKc, symObjAddr: 0x19E8, symBinAddr: 0x100004EA0, symSize: 0x34 }
  - { offsetInCU: 0x13760, offset: 0x13760, size: 0x8, addend: 0x0, symName: __ZNKSt3__112basic_stringIcNS_11char_traitsIcEENS_9allocatorIcEEE13__get_pointerB7v160006Ev, symObjAddr: 0x1A1C, symBinAddr: 0x100004ED4, symSize: 0x54 }
  - { offsetInCU: 0x13786, offset: 0x13786, size: 0x8, addend: 0x0, symName: __ZNSt3__111__wrap_iterIPKcEC1B7v160006EPKvS2_, symObjAddr: 0x1A7C, symBinAddr: 0x100004F34, symSize: 0x3C }
  - { offsetInCU: 0x137CC, offset: 0x137CC, size: 0x8, addend: 0x0, symName: __ZNSt3__111__wrap_iterIPKcEC2B7v160006EPKvS2_, symObjAddr: 0x1AB8, symBinAddr: 0x100004F70, symSize: 0x24 }
  - { offsetInCU: 0x13812, offset: 0x13812, size: 0x8, addend: 0x0, symName: __ZNKSt3__112basic_stringIcNS_11char_traitsIcEENS_9allocatorIcEEE9__is_longB7v160006Ev, symObjAddr: 0x1ADC, symBinAddr: 0x100004F94, symSize: 0x38 }
  - { offsetInCU: 0x13838, offset: 0x13838, size: 0x8, addend: 0x0, symName: __ZNKSt3__112basic_stringIcNS_11char_traitsIcEENS_9allocatorIcEEE18__get_long_pointerB7v160006Ev, symObjAddr: 0x1B14, symBinAddr: 0x100004FCC, symSize: 0x28 }
  - { offsetInCU: 0x1385E, offset: 0x1385E, size: 0x8, addend: 0x0, symName: __ZNKSt3__112basic_stringIcNS_11char_traitsIcEENS_9allocatorIcEEE19__get_short_pointerB7v160006Ev, symObjAddr: 0x1B3C, symBinAddr: 0x100004FF4, symSize: 0x28 }
  - { offsetInCU: 0x13884, offset: 0x13884, size: 0x8, addend: 0x0, symName: __ZNKSt3__117__compressed_pairINS_12basic_stringIcNS_11char_traitsIcEENS_9allocatorIcEEE5__repES5_E5firstB7v160006Ev, symObjAddr: 0x1B64, symBinAddr: 0x10000501C, symSize: 0x24 }
  - { offsetInCU: 0x138AA, offset: 0x138AA, size: 0x8, addend: 0x0, symName: __ZNKSt3__122__compressed_pair_elemINS_12basic_stringIcNS_11char_traitsIcEENS_9allocatorIcEEE5__repELi0ELb0EE5__getB7v160006Ev, symObjAddr: 0x1B88, symBinAddr: 0x100005040, symSize: 0x14 }
  - { offsetInCU: 0x138D0, offset: 0x138D0, size: 0x8, addend: 0x0, symName: __ZNSt3__114pointer_traitsIPKcE10pointer_toB7v160006ERS1_, symObjAddr: 0x1B9C, symBinAddr: 0x100005054, symSize: 0x14 }
  - { offsetInCU: 0x138F3, offset: 0x138F3, size: 0x8, addend: 0x0, symName: __ZNKSt3__112basic_stringIcNS_11char_traitsIcEENS_9allocatorIcEEE4sizeB7v160006Ev, symObjAddr: 0x1BB0, symBinAddr: 0x100005068, symSize: 0x54 }
  - { offsetInCU: 0x13919, offset: 0x13919, size: 0x8, addend: 0x0, symName: __ZNKSt3__112basic_stringIcNS_11char_traitsIcEENS_9allocatorIcEEE15__get_long_sizeB7v160006Ev, symObjAddr: 0x1C04, symBinAddr: 0x1000050BC, symSize: 0x28 }
  - { offsetInCU: 0x1393F, offset: 0x1393F, size: 0x8, addend: 0x0, symName: __ZNKSt3__112basic_stringIcNS_11char_traitsIcEENS_9allocatorIcEEE16__get_short_sizeB7v160006Ev, symObjAddr: 0x1C2C, symBinAddr: 0x1000050E4, symSize: 0x34 }
  - { offsetInCU: 0x13965, offset: 0x13965, size: 0x8, addend: 0x0, symName: __ZNKSt3__111__wrap_iterIPKcE4baseB7v160006Ev, symObjAddr: 0x1CA8, symBinAddr: 0x100005160, symSize: 0x18 }
  - { offsetInCU: 0x1398B, offset: 0x1398B, size: 0x8, addend: 0x0, symName: __ZNSt3__16vectorINS_4pairINS_12basic_stringIcNS_11char_traitsIcEENS_9allocatorIcEEEEiEENS5_IS8_EEE11__make_iterB7v160006EPS8_, symObjAddr: 0x1CC0, symBinAddr: 0x100005178, symSize: 0x34 }
  - { offsetInCU: 0x139C0, offset: 0x139C0, size: 0x8, addend: 0x0, symName: __ZNSt3__111__wrap_iterIPNS_4pairINS_12basic_stringIcNS_11char_traitsIcEENS_9allocatorIcEEEEiEEEC1B7v160006EPKvS9_, symObjAddr: 0x1CF4, symBinAddr: 0x1000051AC, symSize: 0x3C }
  - { offsetInCU: 0x13A06, offset: 0x13A06, size: 0x8, addend: 0x0, symName: __ZNSt3__111__wrap_iterIPNS_4pairINS_12basic_stringIcNS_11char_traitsIcEENS_9allocatorIcEEEEiEEEC2B7v160006EPKvS9_, symObjAddr: 0x1D30, symBinAddr: 0x1000051E8, symSize: 0x24 }
  - { offsetInCU: 0x13A4C, offset: 0x13A4C, size: 0x8, addend: 0x0, symName: __ZNKSt3__111__wrap_iterIPNS_4pairINS_12basic_stringIcNS_11char_traitsIcEENS_9allocatorIcEEEEiEEE4baseB7v160006Ev, symObjAddr: 0x1D9C, symBinAddr: 0x100005254, symSize: 0x18 }
  - { offsetInCU: 0x13A72, offset: 0x13A72, size: 0x8, addend: 0x0, symName: __ZNKSt3__112basic_stringIcNS_11char_traitsIcEENS_9allocatorIcEEE4dataB7v160006Ev, symObjAddr: 0x1DB4, symBinAddr: 0x10000526C, symSize: 0x28 }
  - { offsetInCU: 0x13A98, offset: 0x13A98, size: 0x8, addend: 0x0, symName: __ZNSt3__111char_traitsIcE7compareEPKcS3_m, symObjAddr: 0x1DDC, symBinAddr: 0x100005294, symSize: 0x6C }
  - { offsetInCU: 0x13AD7, offset: 0x13AD7, size: 0x8, addend: 0x0, symName: __ZNSt3__16vectorINS_4pairINS_12basic_stringIcNS_11char_traitsIcEENS_9allocatorIcEEEEiEENS5_IS8_EEE12emplace_backIJRKS7_RiEEEvDpOT_, symObjAddr: 0x1E90, symBinAddr: 0x100005348, symSize: 0x78 }
  - { offsetInCU: 0x13B2D, offset: 0x13B2D, size: 0x8, addend: 0x0, symName: __ZNSt3__16vectorINS_4pairINS_12basic_stringIcNS_11char_traitsIcEENS_9allocatorIcEEEEiEENS5_IS8_EEE9__end_capB7v160006Ev, symObjAddr: 0x1F08, symBinAddr: 0x1000053C0, symSize: 0x28 }
  - { offsetInCU: 0x13B53, offset: 0x13B53, size: 0x8, addend: 0x0, symName: __ZNSt3__16vectorINS_4pairINS_12basic_stringIcNS_11char_traitsIcEENS_9allocatorIcEEEEiEENS5_IS8_EEE22__construct_one_at_endB7v160006IJRKS7_RiEEEvDpOT_, symObjAddr: 0x1F30, symBinAddr: 0x1000053E8, symSize: 0x98 }
  - { offsetInCU: 0x13BB6, offset: 0x13BB6, size: 0x8, addend: 0x0, symName: __ZNSt3__16vectorINS_4pairINS_12basic_stringIcNS_11char_traitsIcEENS_9allocatorIcEEEEiEENS5_IS8_EEE24__emplace_back_slow_pathIJRKS7_RiEEEvDpOT_, symObjAddr: 0x1FC8, symBinAddr: 0x100005480, symSize: 0xE0 }
  - { offsetInCU: 0x13C2A, offset: 0x13C2A, size: 0x8, addend: 0x0, symName: __ZNSt3__117__compressed_pairIPNS_4pairINS_12basic_stringIcNS_11char_traitsIcEENS_9allocatorIcEEEEiEENS5_IS8_EEE5firstB7v160006Ev, symObjAddr: 0x20A8, symBinAddr: 0x100005560, symSize: 0x24 }
  - { offsetInCU: 0x13C50, offset: 0x13C50, size: 0x8, addend: 0x0, symName: __ZNSt3__122__compressed_pair_elemIPNS_4pairINS_12basic_stringIcNS_11char_traitsIcEENS_9allocatorIcEEEEiEELi0ELb0EE5__getB7v160006Ev, symObjAddr: 0x20CC, symBinAddr: 0x100005584, symSize: 0x14 }
  - { offsetInCU: 0x13C8F, offset: 0x13C8F, size: 0x8, addend: 0x0, symName: __ZNSt3__16vectorINS_4pairINS_12basic_stringIcNS_11char_traitsIcEENS_9allocatorIcEEEEiEENS5_IS8_EEE21_ConstructTransactionC1B7v160006ERSA_m, symObjAddr: 0x20E0, symBinAddr: 0x100005598, symSize: 0x3C }
  - { offsetInCU: 0x13CD7, offset: 0x13CD7, size: 0x8, addend: 0x0, symName: __ZNSt3__116allocator_traitsINS_9allocatorINS_4pairINS_12basic_stringIcNS_11char_traitsIcEENS1_IcEEEEiEEEEE9constructB7v160006IS8_JRKS7_RiEvEEvRS9_PT_DpOT0_, symObjAddr: 0x211C, symBinAddr: 0x1000055D4, symSize: 0x3C }
  - { offsetInCU: 0x13D42, offset: 0x13D42, size: 0x8, addend: 0x0, symName: __ZNSt3__16vectorINS_4pairINS_12basic_stringIcNS_11char_traitsIcEENS_9allocatorIcEEEEiEENS5_IS8_EEE7__allocB7v160006Ev, symObjAddr: 0x2158, symBinAddr: 0x100005610, symSize: 0x28 }
  - { offsetInCU: 0x13D68, offset: 0x13D68, size: 0x8, addend: 0x0, symName: __ZNSt3__16vectorINS_4pairINS_12basic_stringIcNS_11char_traitsIcEENS_9allocatorIcEEEEiEENS5_IS8_EEE21_ConstructTransactionD1B7v160006Ev, symObjAddr: 0x2194, symBinAddr: 0x10000564C, symSize: 0x2C }
  - { offsetInCU: 0x13D92, offset: 0x13D92, size: 0x8, addend: 0x0, symName: __ZNSt3__16vectorINS_4pairINS_12basic_stringIcNS_11char_traitsIcEENS_9allocatorIcEEEEiEENS5_IS8_EEE21_ConstructTransactionC2B7v160006ERSA_m, symObjAddr: 0x21C0, symBinAddr: 0x100005678, symSize: 0x44 }
  - { offsetInCU: 0x13DDA, offset: 0x13DDA, size: 0x8, addend: 0x0, symName: __ZNSt3__19allocatorINS_4pairINS_12basic_stringIcNS_11char_traitsIcEENS0_IcEEEEiEEE9constructB7v160006IS7_JRKS6_RiEEEvPT_DpOT0_, symObjAddr: 0x2204, symBinAddr: 0x1000056BC, symSize: 0x38 }
  - { offsetInCU: 0x13E43, offset: 0x13E43, size: 0x8, addend: 0x0, symName: __ZNSt3__14pairINS_12basic_stringIcNS_11char_traitsIcEENS_9allocatorIcEEEEiEC1B7v160006IRKS6_RiLPv0EEEOT_OT0_, symObjAddr: 0x223C, symBinAddr: 0x1000056F4, symSize: 0x3C }
  - { offsetInCU: 0x13EA1, offset: 0x13EA1, size: 0x8, addend: 0x0, symName: __ZNSt3__14pairINS_12basic_stringIcNS_11char_traitsIcEENS_9allocatorIcEEEEiEC2B7v160006IRKS6_RiLPv0EEEOT_OT0_, symObjAddr: 0x2278, symBinAddr: 0x100005730, symSize: 0x44 }
  - { offsetInCU: 0x13EFF, offset: 0x13EFF, size: 0x8, addend: 0x0, symName: __ZNSt3__117__compressed_pairIPNS_4pairINS_12basic_stringIcNS_11char_traitsIcEENS_9allocatorIcEEEEiEENS5_IS8_EEE6secondB7v160006Ev, symObjAddr: 0x22BC, symBinAddr: 0x100005774, symSize: 0x24 }
  - { offsetInCU: 0x13F25, offset: 0x13F25, size: 0x8, addend: 0x0, symName: __ZNSt3__122__compressed_pair_elemINS_9allocatorINS_4pairINS_12basic_stringIcNS_11char_traitsIcEENS1_IcEEEEiEEEELi1ELb1EE5__getB7v160006Ev, symObjAddr: 0x22E0, symBinAddr: 0x100005798, symSize: 0x14 }
  - { offsetInCU: 0x13F4B, offset: 0x13F4B, size: 0x8, addend: 0x0, symName: __ZNSt3__16vectorINS_4pairINS_12basic_stringIcNS_11char_traitsIcEENS_9allocatorIcEEEEiEENS5_IS8_EEE21_ConstructTransactionD2B7v160006Ev, symObjAddr: 0x22F4, symBinAddr: 0x1000057AC, symSize: 0x20 }
  - { offsetInCU: 0x13F75, offset: 0x13F75, size: 0x8, addend: 0x0, symName: __ZNKSt3__16vectorINS_4pairINS_12basic_stringIcNS_11char_traitsIcEENS_9allocatorIcEEEEiEENS5_IS8_EEE11__recommendB7v160006Em, symObjAddr: 0x2314, symBinAddr: 0x1000057CC, symSize: 0xB4 }
  - { offsetInCU: 0x13FCA, offset: 0x13FCA, size: 0x8, addend: 0x0, symName: __ZNKSt3__16vectorINS_4pairINS_12basic_stringIcNS_11char_traitsIcEENS_9allocatorIcEEEEiEENS5_IS8_EEE4sizeB7v160006Ev, symObjAddr: 0x23C8, symBinAddr: 0x100005880, symSize: 0x28 }
  - { offsetInCU: 0x13FF0, offset: 0x13FF0, size: 0x8, addend: 0x0, symName: __ZNSt3__114__split_bufferINS_4pairINS_12basic_stringIcNS_11char_traitsIcEENS_9allocatorIcEEEEiEERNS5_IS8_EEEC1EmmSA_, symObjAddr: 0x23F0, symBinAddr: 0x1000058A8, symSize: 0x44 }
  - { offsetInCU: 0x14046, offset: 0x14046, size: 0x8, addend: 0x0, symName: __ZNSt3__114__split_bufferINS_4pairINS_12basic_stringIcNS_11char_traitsIcEENS_9allocatorIcEEEEiEERNS5_IS8_EEED1Ev, symObjAddr: 0x254C, symBinAddr: 0x100005A04, symSize: 0x2C }
  - { offsetInCU: 0x14072, offset: 0x14072, size: 0x8, addend: 0x0, symName: __ZNKSt3__16vectorINS_4pairINS_12basic_stringIcNS_11char_traitsIcEENS_9allocatorIcEEEEiEENS5_IS8_EEE8max_sizeEv, symObjAddr: 0x2578, symBinAddr: 0x100005A30, symSize: 0x60 }
  - { offsetInCU: 0x1409A, offset: 0x1409A, size: 0x8, addend: 0x0, symName: __ZNKSt3__16vectorINS_4pairINS_12basic_stringIcNS_11char_traitsIcEENS_9allocatorIcEEEEiEENS5_IS8_EEE20__throw_length_errorB7v160006Ev, symObjAddr: 0x25D8, symBinAddr: 0x100005A90, symSize: 0x1C }
  - { offsetInCU: 0x140C0, offset: 0x140C0, size: 0x8, addend: 0x0, symName: __ZNKSt3__16vectorINS_4pairINS_12basic_stringIcNS_11char_traitsIcEENS_9allocatorIcEEEEiEENS5_IS8_EEE8capacityB7v160006Ev, symObjAddr: 0x25F4, symBinAddr: 0x100005AAC, symSize: 0x40 }
  - { offsetInCU: 0x140F0, offset: 0x140F0, size: 0x8, addend: 0x0, symName: __ZNSt3__116allocator_traitsINS_9allocatorINS_4pairINS_12basic_stringIcNS_11char_traitsIcEENS1_IcEEEEiEEEEE8max_sizeB7v160006IS9_vEEmRKS9_, symObjAddr: 0x268C, symBinAddr: 0x100005B44, symSize: 0x24 }
  - { offsetInCU: 0x1411E, offset: 0x1411E, size: 0x8, addend: 0x0, symName: __ZNKSt3__16vectorINS_4pairINS_12basic_stringIcNS_11char_traitsIcEENS_9allocatorIcEEEEiEENS5_IS8_EEE7__allocB7v160006Ev, symObjAddr: 0x26B0, symBinAddr: 0x100005B68, symSize: 0x28 }
  - { offsetInCU: 0x14144, offset: 0x14144, size: 0x8, addend: 0x0, symName: __ZNSt3__114numeric_limitsIlE3maxB7v160006Ev, symObjAddr: 0x26D8, symBinAddr: 0x100005B90, symSize: 0x14 }
  - { offsetInCU: 0x1416C, offset: 0x1416C, size: 0x8, addend: 0x0, symName: __ZNKSt3__16__lessImmEclB7v160006ERKmS3_, symObjAddr: 0x2740, symBinAddr: 0x100005BF8, symSize: 0x34 }
  - { offsetInCU: 0x141AE, offset: 0x141AE, size: 0x8, addend: 0x0, symName: __ZNKSt3__19allocatorINS_4pairINS_12basic_stringIcNS_11char_traitsIcEENS0_IcEEEEiEEE8max_sizeB7v160006Ev, symObjAddr: 0x2774, symBinAddr: 0x100005C2C, symSize: 0x14 }
  - { offsetInCU: 0x141D4, offset: 0x141D4, size: 0x8, addend: 0x0, symName: __ZNKSt3__117__compressed_pairIPNS_4pairINS_12basic_stringIcNS_11char_traitsIcEENS_9allocatorIcEEEEiEENS5_IS8_EEE6secondB7v160006Ev, symObjAddr: 0x2788, symBinAddr: 0x100005C40, symSize: 0x24 }
  - { offsetInCU: 0x141FA, offset: 0x141FA, size: 0x8, addend: 0x0, symName: __ZNKSt3__122__compressed_pair_elemINS_9allocatorINS_4pairINS_12basic_stringIcNS_11char_traitsIcEENS1_IcEEEEiEEEELi1ELb1EE5__getB7v160006Ev, symObjAddr: 0x27AC, symBinAddr: 0x100005C64, symSize: 0x14 }
  - { offsetInCU: 0x14220, offset: 0x14220, size: 0x8, addend: 0x0, symName: __ZNSt3__123__libcpp_numeric_limitsIlLb1EE3maxB7v160006Ev, symObjAddr: 0x27C0, symBinAddr: 0x100005C78, symSize: 0x8 }
  - { offsetInCU: 0x14234, offset: 0x14234, size: 0x8, addend: 0x0, symName: __ZNSt12length_errorC1B7v160006EPKc, symObjAddr: 0x282C, symBinAddr: 0x100005CE4, symSize: 0x34 }
  - { offsetInCU: 0x1426C, offset: 0x1426C, size: 0x8, addend: 0x0, symName: __ZNSt12length_errorC2B7v160006EPKc, symObjAddr: 0x2860, symBinAddr: 0x100005D18, symSize: 0x4C }
  - { offsetInCU: 0x142A4, offset: 0x142A4, size: 0x8, addend: 0x0, symName: __ZNKSt3__16vectorINS_4pairINS_12basic_stringIcNS_11char_traitsIcEENS_9allocatorIcEEEEiEENS5_IS8_EEE9__end_capB7v160006Ev, symObjAddr: 0x28AC, symBinAddr: 0x100005D64, symSize: 0x28 }
  - { offsetInCU: 0x142CA, offset: 0x142CA, size: 0x8, addend: 0x0, symName: __ZNKSt3__117__compressed_pairIPNS_4pairINS_12basic_stringIcNS_11char_traitsIcEENS_9allocatorIcEEEEiEENS5_IS8_EEE5firstB7v160006Ev, symObjAddr: 0x28D4, symBinAddr: 0x100005D8C, symSize: 0x24 }
  - { offsetInCU: 0x142F0, offset: 0x142F0, size: 0x8, addend: 0x0, symName: __ZNKSt3__122__compressed_pair_elemIPNS_4pairINS_12basic_stringIcNS_11char_traitsIcEENS_9allocatorIcEEEEiEELi0ELb0EE5__getB7v160006Ev, symObjAddr: 0x28F8, symBinAddr: 0x100005DB0, symSize: 0x14 }
  - { offsetInCU: 0x14316, offset: 0x14316, size: 0x8, addend: 0x0, symName: __ZNSt3__114__split_bufferINS_4pairINS_12basic_stringIcNS_11char_traitsIcEENS_9allocatorIcEEEEiEERNS5_IS8_EEEC2EmmSA_, symObjAddr: 0x2960, symBinAddr: 0x100005E18, symSize: 0xD4 }
  - { offsetInCU: 0x14390, offset: 0x14390, size: 0x8, addend: 0x0, symName: __ZNSt3__117__compressed_pairIPNS_4pairINS_12basic_stringIcNS_11char_traitsIcEENS_9allocatorIcEEEEiEERNS5_IS8_EEEC1B7v160006IDnSB_EEOT_OT0_, symObjAddr: 0x2A34, symBinAddr: 0x100005EEC, symSize: 0x3C }
  - { offsetInCU: 0x143E8, offset: 0x143E8, size: 0x8, addend: 0x0, symName: __ZNSt3__114__split_bufferINS_4pairINS_12basic_stringIcNS_11char_traitsIcEENS_9allocatorIcEEEEiEERNS5_IS8_EEE7__allocB7v160006Ev, symObjAddr: 0x2AB0, symBinAddr: 0x100005F68, symSize: 0x28 }
  - { offsetInCU: 0x1440E, offset: 0x1440E, size: 0x8, addend: 0x0, symName: __ZNSt3__114__split_bufferINS_4pairINS_12basic_stringIcNS_11char_traitsIcEENS_9allocatorIcEEEEiEERNS5_IS8_EEE9__end_capB7v160006Ev, symObjAddr: 0x2AD8, symBinAddr: 0x100005F90, symSize: 0x28 }
  - { offsetInCU: 0x14434, offset: 0x14434, size: 0x8, addend: 0x0, symName: __ZNSt3__117__compressed_pairIPNS_4pairINS_12basic_stringIcNS_11char_traitsIcEENS_9allocatorIcEEEEiEERNS5_IS8_EEEC2B7v160006IDnSB_EEOT_OT0_, symObjAddr: 0x2B00, symBinAddr: 0x100005FB8, symSize: 0x48 }
  - { offsetInCU: 0x1448C, offset: 0x1448C, size: 0x8, addend: 0x0, symName: __ZNSt3__122__compressed_pair_elemIPNS_4pairINS_12basic_stringIcNS_11char_traitsIcEENS_9allocatorIcEEEEiEELi0ELb0EEC2B7v160006IDnvEEOT_, symObjAddr: 0x2B48, symBinAddr: 0x100006000, symSize: 0x1C }
  - { offsetInCU: 0x144CE, offset: 0x144CE, size: 0x8, addend: 0x0, symName: __ZNSt3__122__compressed_pair_elemIRNS_9allocatorINS_4pairINS_12basic_stringIcNS_11char_traitsIcEENS1_IcEEEEiEEEELi1ELb0EEC2B7v160006ISA_vEEOT_, symObjAddr: 0x2B64, symBinAddr: 0x10000601C, symSize: 0x20 }
  - { offsetInCU: 0x14510, offset: 0x14510, size: 0x8, addend: 0x0, symName: __ZNSt3__19allocatorINS_4pairINS_12basic_stringIcNS_11char_traitsIcEENS0_IcEEEEiEEE8allocateB7v160006Em, symObjAddr: 0x2B84, symBinAddr: 0x10000603C, symSize: 0x58 }
  - { offsetInCU: 0x14544, offset: 0x14544, size: 0x8, addend: 0x0, symName: __ZNSt3__117__compressed_pairIPNS_4pairINS_12basic_stringIcNS_11char_traitsIcEENS_9allocatorIcEEEEiEERNS5_IS8_EEE6secondB7v160006Ev, symObjAddr: 0x2C5C, symBinAddr: 0x100006114, symSize: 0x28 }
  - { offsetInCU: 0x1456A, offset: 0x1456A, size: 0x8, addend: 0x0, symName: __ZNSt3__122__compressed_pair_elemIRNS_9allocatorINS_4pairINS_12basic_stringIcNS_11char_traitsIcEENS1_IcEEEEiEEEELi1ELb0EE5__getB7v160006Ev, symObjAddr: 0x2C84, symBinAddr: 0x10000613C, symSize: 0x18 }
  - { offsetInCU: 0x14590, offset: 0x14590, size: 0x8, addend: 0x0, symName: __ZNSt3__117__compressed_pairIPNS_4pairINS_12basic_stringIcNS_11char_traitsIcEENS_9allocatorIcEEEEiEERNS5_IS8_EEE5firstB7v160006Ev, symObjAddr: 0x2C9C, symBinAddr: 0x100006154, symSize: 0x24 }
  - { offsetInCU: 0x145B6, offset: 0x145B6, size: 0x8, addend: 0x0, symName: __ZNKSt3__16vectorINS_4pairINS_12basic_stringIcNS_11char_traitsIcEENS_9allocatorIcEEEEiEENS5_IS8_EEE17__annotate_deleteB7v160006Ev, symObjAddr: 0x2CC0, symBinAddr: 0x100006178, symSize: 0xB8 }
  - { offsetInCU: 0x145DC, offset: 0x145DC, size: 0x8, addend: 0x0, symName: __ZNSt3__116reverse_iteratorIPNS_4pairINS_12basic_stringIcNS_11char_traitsIcEENS_9allocatorIcEEEEiEEEC1B7v160006ES9_, symObjAddr: 0x2EA4, symBinAddr: 0x10000635C, symSize: 0x34 }
  - { offsetInCU: 0x14614, offset: 0x14614, size: 0x8, addend: 0x0, symName: __ZNKSt3__116reverse_iteratorIPNS_4pairINS_12basic_stringIcNS_11char_traitsIcEENS_9allocatorIcEEEEiEEE4baseB7v160006Ev, symObjAddr: 0x2ED8, symBinAddr: 0x100006390, symSize: 0x18 }
  - { offsetInCU: 0x1463A, offset: 0x1463A, size: 0x8, addend: 0x0, symName: __ZNKSt3__16vectorINS_4pairINS_12basic_stringIcNS_11char_traitsIcEENS_9allocatorIcEEEEiEENS5_IS8_EEE14__annotate_newB7v160006Em, symObjAddr: 0x2F2C, symBinAddr: 0x1000063E4, symSize: 0xAC }
  - { offsetInCU: 0x1466F, offset: 0x1466F, size: 0x8, addend: 0x0, symName: __ZNKSt3__16vectorINS_4pairINS_12basic_stringIcNS_11char_traitsIcEENS_9allocatorIcEEEEiEENS5_IS8_EEE31__annotate_contiguous_containerB7v160006EPKvSC_SC_SC_, symObjAddr: 0x2FE8, symBinAddr: 0x1000064A0, symSize: 0x20 }
  - { offsetInCU: 0x146C5, offset: 0x146C5, size: 0x8, addend: 0x0, symName: __ZNKSt3__16vectorINS_4pairINS_12basic_stringIcNS_11char_traitsIcEENS_9allocatorIcEEEEiEENS5_IS8_EEE4dataB7v160006Ev, symObjAddr: 0x3008, symBinAddr: 0x1000064C0, symSize: 0x28 }
  - { offsetInCU: 0x146EB, offset: 0x146EB, size: 0x8, addend: 0x0, symName: __ZNSt3__129_AllocatorDestroyRangeReverseINS_9allocatorINS_4pairINS_12basic_stringIcNS_11char_traitsIcEENS1_IcEEEEiEEEENS_16reverse_iteratorIPS8_EEEC1B7v160006ERS9_RSC_SF_, symObjAddr: 0x307C, symBinAddr: 0x100006534, symSize: 0x44 }
  - { offsetInCU: 0x14742, offset: 0x14742, size: 0x8, addend: 0x0, symName: __ZNSt3__116allocator_traitsINS_9allocatorINS_4pairINS_12basic_stringIcNS_11char_traitsIcEENS1_IcEEEEiEEEEE9constructB7v160006IS8_JS8_EvEEvRS9_PT_DpOT0_, symObjAddr: 0x3108, symBinAddr: 0x1000065C0, symSize: 0x34 }
  - { offsetInCU: 0x14799, offset: 0x14799, size: 0x8, addend: 0x0, symName: __ZNKSt3__116reverse_iteratorIPNS_4pairINS_12basic_stringIcNS_11char_traitsIcEENS_9allocatorIcEEEEiEEEdeB7v160006Ev, symObjAddr: 0x3160, symBinAddr: 0x100006618, symSize: 0x28 }
  - { offsetInCU: 0x147CD, offset: 0x147CD, size: 0x8, addend: 0x0, symName: __ZNSt3__116reverse_iteratorIPNS_4pairINS_12basic_stringIcNS_11char_traitsIcEENS_9allocatorIcEEEEiEEEppB7v160006Ev, symObjAddr: 0x3188, symBinAddr: 0x100006640, symSize: 0x20 }
  - { offsetInCU: 0x147F3, offset: 0x147F3, size: 0x8, addend: 0x0, symName: __ZNSt3__128__exception_guard_exceptionsINS_29_AllocatorDestroyRangeReverseINS_9allocatorINS_4pairINS_12basic_stringIcNS_11char_traitsIcEENS2_IcEEEEiEEEENS_16reverse_iteratorIPS9_EEEEE10__completeB7v160006Ev, symObjAddr: 0x31A8, symBinAddr: 0x100006660, symSize: 0x1C }
  - { offsetInCU: 0x14819, offset: 0x14819, size: 0x8, addend: 0x0, symName: __ZNSt3__128__exception_guard_exceptionsINS_29_AllocatorDestroyRangeReverseINS_9allocatorINS_4pairINS_12basic_stringIcNS_11char_traitsIcEENS2_IcEEEEiEEEENS_16reverse_iteratorIPS9_EEEEED1B7v160006Ev, symObjAddr: 0x31C4, symBinAddr: 0x10000667C, symSize: 0x2C }
  - { offsetInCU: 0x14843, offset: 0x14843, size: 0x8, addend: 0x0, symName: __ZNSt3__128__exception_guard_exceptionsINS_29_AllocatorDestroyRangeReverseINS_9allocatorINS_4pairINS_12basic_stringIcNS_11char_traitsIcEENS2_IcEEEEiEEEENS_16reverse_iteratorIPS9_EEEEEC1B7v160006ESE_, symObjAddr: 0x31F0, symBinAddr: 0x1000066A8, symSize: 0x34 }
  - { offsetInCU: 0x1487C, offset: 0x1487C, size: 0x8, addend: 0x0, symName: __ZNSt3__128__exception_guard_exceptionsINS_29_AllocatorDestroyRangeReverseINS_9allocatorINS_4pairINS_12basic_stringIcNS_11char_traitsIcEENS2_IcEEEEiEEEENS_16reverse_iteratorIPS9_EEEEEC2B7v160006ESE_, symObjAddr: 0x3224, symBinAddr: 0x1000066DC, symSize: 0x30 }
  - { offsetInCU: 0x148B5, offset: 0x148B5, size: 0x8, addend: 0x0, symName: __ZNSt3__129_AllocatorDestroyRangeReverseINS_9allocatorINS_4pairINS_12basic_stringIcNS_11char_traitsIcEENS1_IcEEEEiEEEENS_16reverse_iteratorIPS8_EEEC2B7v160006ERS9_RSC_SF_, symObjAddr: 0x3254, symBinAddr: 0x10000670C, symSize: 0x38 }
  - { offsetInCU: 0x1490C, offset: 0x1490C, size: 0x8, addend: 0x0, symName: __ZNSt3__19allocatorINS_4pairINS_12basic_stringIcNS_11char_traitsIcEENS0_IcEEEEiEEE9constructB7v160006IS7_JS7_EEEvPT_DpOT0_, symObjAddr: 0x328C, symBinAddr: 0x100006744, symSize: 0x30 }
  - { offsetInCU: 0x14962, offset: 0x14962, size: 0x8, addend: 0x0, symName: __ZNSt3__14pairINS_12basic_stringIcNS_11char_traitsIcEENS_9allocatorIcEEEEiEC1EOS7_, symObjAddr: 0x32BC, symBinAddr: 0x100006774, symSize: 0x34 }
  - { offsetInCU: 0x14996, offset: 0x14996, size: 0x8, addend: 0x0, symName: __ZNSt3__14pairINS_12basic_stringIcNS_11char_traitsIcEENS_9allocatorIcEEEEiEC2EOS7_, symObjAddr: 0x32F0, symBinAddr: 0x1000067A8, symSize: 0x40 }
  - { offsetInCU: 0x149CA, offset: 0x149CA, size: 0x8, addend: 0x0, symName: __ZNSt3__112basic_stringIcNS_11char_traitsIcEENS_9allocatorIcEEEC1B7v160006EOS5_, symObjAddr: 0x3330, symBinAddr: 0x1000067E8, symSize: 0x34 }
  - { offsetInCU: 0x14A03, offset: 0x14A03, size: 0x8, addend: 0x0, symName: __ZNSt3__112basic_stringIcNS_11char_traitsIcEENS_9allocatorIcEEEC2B7v160006EOS5_, symObjAddr: 0x3364, symBinAddr: 0x10000681C, symSize: 0x88 }
  - { offsetInCU: 0x14A3C, offset: 0x14A3C, size: 0x8, addend: 0x0, symName: __ZNSt3__112basic_stringIcNS_11char_traitsIcEENS_9allocatorIcEEE14__default_initB7v160006Ev, symObjAddr: 0x33EC, symBinAddr: 0x1000068A4, symSize: 0x40 }
  - { offsetInCU: 0x14A62, offset: 0x14A62, size: 0x8, addend: 0x0, symName: __ZNSt3__117__compressed_pairINS_12basic_stringIcNS_11char_traitsIcEENS_9allocatorIcEEE5__repES5_E5firstB7v160006Ev, symObjAddr: 0x3450, symBinAddr: 0x100006908, symSize: 0x24 }
  - { offsetInCU: 0x14A88, offset: 0x14A88, size: 0x8, addend: 0x0, symName: __ZNSt3__122__compressed_pair_elemINS_12basic_stringIcNS_11char_traitsIcEENS_9allocatorIcEEE5__repELi0ELb0EE5__getB7v160006Ev, symObjAddr: 0x3474, symBinAddr: 0x10000692C, symSize: 0x14 }
  - { offsetInCU: 0x14AB3, offset: 0x14AB3, size: 0x8, addend: 0x0, symName: __ZNSt3__119__to_address_helperINS_16reverse_iteratorIPNS_4pairINS_12basic_stringIcNS_11char_traitsIcEENS_9allocatorIcEEEEiEEEEvE6__callB7v160006ERKSB_, symObjAddr: 0x3488, symBinAddr: 0x100006940, symSize: 0x38 }
  - { offsetInCU: 0x14AD6, offset: 0x14AD6, size: 0x8, addend: 0x0, symName: __ZNKSt3__116reverse_iteratorIPNS_4pairINS_12basic_stringIcNS_11char_traitsIcEENS_9allocatorIcEEEEiEEEptB7v160006Ev, symObjAddr: 0x34C0, symBinAddr: 0x100006978, symSize: 0x24 }
  - { offsetInCU: 0x14AFC, offset: 0x14AFC, size: 0x8, addend: 0x0, symName: __ZNSt3__128__exception_guard_exceptionsINS_29_AllocatorDestroyRangeReverseINS_9allocatorINS_4pairINS_12basic_stringIcNS_11char_traitsIcEENS2_IcEEEEiEEEENS_16reverse_iteratorIPS9_EEEEED2B7v160006Ev, symObjAddr: 0x34E4, symBinAddr: 0x10000699C, symSize: 0x50 }
  - { offsetInCU: 0x14B26, offset: 0x14B26, size: 0x8, addend: 0x0, symName: __ZNKSt3__129_AllocatorDestroyRangeReverseINS_9allocatorINS_4pairINS_12basic_stringIcNS_11char_traitsIcEENS1_IcEEEEiEEEENS_16reverse_iteratorIPS8_EEEclB7v160006Ev, symObjAddr: 0x3534, symBinAddr: 0x1000069EC, symSize: 0xB4 }
  - { offsetInCU: 0x14B4D, offset: 0x14B4D, size: 0x8, addend: 0x0, symName: __ZNSt3__116reverse_iteratorINS0_IPNS_4pairINS_12basic_stringIcNS_11char_traitsIcEENS_9allocatorIcEEEEiEEEEEC1B7v160006ESA_, symObjAddr: 0x3658, symBinAddr: 0x100006B10, symSize: 0x3C }
  - { offsetInCU: 0x14B85, offset: 0x14B85, size: 0x8, addend: 0x0, symName: __ZNSt3__116allocator_traitsINS_9allocatorINS_4pairINS_12basic_stringIcNS_11char_traitsIcEENS1_IcEEEEiEEEEE7destroyB7v160006IS8_vEEvRS9_PT_, symObjAddr: 0x36F4, symBinAddr: 0x100006BAC, symSize: 0x2C }
  - { offsetInCU: 0x14BC2, offset: 0x14BC2, size: 0x8, addend: 0x0, symName: __ZNSt3__116reverse_iteratorINS0_IPNS_4pairINS_12basic_stringIcNS_11char_traitsIcEENS_9allocatorIcEEEEiEEEEEppB7v160006Ev, symObjAddr: 0x3744, symBinAddr: 0x100006BFC, symSize: 0x30 }
  - { offsetInCU: 0x14BE8, offset: 0x14BE8, size: 0x8, addend: 0x0, symName: __ZNKSt3__116reverse_iteratorINS0_IPNS_4pairINS_12basic_stringIcNS_11char_traitsIcEENS_9allocatorIcEEEEiEEEEE4baseB7v160006Ev, symObjAddr: 0x3774, symBinAddr: 0x100006C2C, symSize: 0x24 }
  - { offsetInCU: 0x14C0E, offset: 0x14C0E, size: 0x8, addend: 0x0, symName: __ZNSt3__19allocatorINS_4pairINS_12basic_stringIcNS_11char_traitsIcEENS0_IcEEEEiEEE7destroyB7v160006EPS7_, symObjAddr: 0x3798, symBinAddr: 0x100006C50, symSize: 0x28 }
  - { offsetInCU: 0x14C42, offset: 0x14C42, size: 0x8, addend: 0x0, symName: __ZNSt3__14pairINS_12basic_stringIcNS_11char_traitsIcEENS_9allocatorIcEEEEiED1Ev, symObjAddr: 0x37C0, symBinAddr: 0x100006C78, symSize: 0x2C }
  - { offsetInCU: 0x14C6E, offset: 0x14C6E, size: 0x8, addend: 0x0, symName: __ZNSt3__14pairINS_12basic_stringIcNS_11char_traitsIcEENS_9allocatorIcEEEEiED2Ev, symObjAddr: 0x37EC, symBinAddr: 0x100006CA4, symSize: 0x2C }
  - { offsetInCU: 0x14C9F, offset: 0x14C9F, size: 0x8, addend: 0x0, symName: __ZNSt3__119__to_address_helperINS_16reverse_iteratorINS1_IPNS_4pairINS_12basic_stringIcNS_11char_traitsIcEENS_9allocatorIcEEEEiEEEEEEvE6__callB7v160006ERKSC_, symObjAddr: 0x3818, symBinAddr: 0x100006CD0, symSize: 0x38 }
  - { offsetInCU: 0x14CC2, offset: 0x14CC2, size: 0x8, addend: 0x0, symName: __ZNKSt3__116reverse_iteratorINS0_IPNS_4pairINS_12basic_stringIcNS_11char_traitsIcEENS_9allocatorIcEEEEiEEEEEptB7v160006Ev, symObjAddr: 0x3850, symBinAddr: 0x100006D08, symSize: 0x24 }
  - { offsetInCU: 0x14CE8, offset: 0x14CE8, size: 0x8, addend: 0x0, symName: __ZNKSt3__116reverse_iteratorINS0_IPNS_4pairINS_12basic_stringIcNS_11char_traitsIcEENS_9allocatorIcEEEEiEEEEEdeB7v160006Ev, symObjAddr: 0x3874, symBinAddr: 0x100006D2C, symSize: 0x34 }
  - { offsetInCU: 0x14D1C, offset: 0x14D1C, size: 0x8, addend: 0x0, symName: __ZNSt3__116reverse_iteratorIPNS_4pairINS_12basic_stringIcNS_11char_traitsIcEENS_9allocatorIcEEEEiEEEmmB7v160006Ev, symObjAddr: 0x38A8, symBinAddr: 0x100006D60, symSize: 0x20 }
  - { offsetInCU: 0x14D42, offset: 0x14D42, size: 0x8, addend: 0x0, symName: __ZNSt3__116reverse_iteratorINS0_IPNS_4pairINS_12basic_stringIcNS_11char_traitsIcEENS_9allocatorIcEEEEiEEEEEC2B7v160006ESA_, symObjAddr: 0x38C8, symBinAddr: 0x100006D80, symSize: 0x2C }
  - { offsetInCU: 0x14D7A, offset: 0x14D7A, size: 0x8, addend: 0x0, symName: __ZNSt3__116reverse_iteratorIPNS_4pairINS_12basic_stringIcNS_11char_traitsIcEENS_9allocatorIcEEEEiEEEC2B7v160006ES9_, symObjAddr: 0x38F4, symBinAddr: 0x100006DAC, symSize: 0x28 }
  - { offsetInCU: 0x14DB2, offset: 0x14DB2, size: 0x8, addend: 0x0, symName: __ZNSt3__114__split_bufferINS_4pairINS_12basic_stringIcNS_11char_traitsIcEENS_9allocatorIcEEEEiEERNS5_IS8_EEED2Ev, symObjAddr: 0x391C, symBinAddr: 0x100006DD4, symSize: 0x8C }
  - { offsetInCU: 0x14DDE, offset: 0x14DDE, size: 0x8, addend: 0x0, symName: __ZNSt3__114__split_bufferINS_4pairINS_12basic_stringIcNS_11char_traitsIcEENS_9allocatorIcEEEEiEERNS5_IS8_EEE5clearB7v160006Ev, symObjAddr: 0x39A8, symBinAddr: 0x100006E60, symSize: 0x28 }
  - { offsetInCU: 0x14E04, offset: 0x14E04, size: 0x8, addend: 0x0, symName: __ZNSt3__116allocator_traitsINS_9allocatorINS_4pairINS_12basic_stringIcNS_11char_traitsIcEENS1_IcEEEEiEEEEE10deallocateB7v160006ERS9_PS8_m, symObjAddr: 0x39D0, symBinAddr: 0x100006E88, symSize: 0x34 }
  - { offsetInCU: 0x14E46, offset: 0x14E46, size: 0x8, addend: 0x0, symName: __ZNKSt3__114__split_bufferINS_4pairINS_12basic_stringIcNS_11char_traitsIcEENS_9allocatorIcEEEEiEERNS5_IS8_EEE8capacityB7v160006Ev, symObjAddr: 0x3A04, symBinAddr: 0x100006EBC, symSize: 0x40 }
  - { offsetInCU: 0x14E6C, offset: 0x14E6C, size: 0x8, addend: 0x0, symName: __ZNSt3__114__split_bufferINS_4pairINS_12basic_stringIcNS_11char_traitsIcEENS_9allocatorIcEEEEiEERNS5_IS8_EEE17__destruct_at_endB7v160006EPS8_, symObjAddr: 0x3A44, symBinAddr: 0x100006EFC, symSize: 0x2C }
  - { offsetInCU: 0x14EA0, offset: 0x14EA0, size: 0x8, addend: 0x0, symName: __ZNSt3__114__split_bufferINS_4pairINS_12basic_stringIcNS_11char_traitsIcEENS_9allocatorIcEEEEiEERNS5_IS8_EEE17__destruct_at_endB7v160006EPS8_NS_17integral_constantIbLb0EEE, symObjAddr: 0x3A70, symBinAddr: 0x100006F28, symSize: 0x80 }
  - { offsetInCU: 0x14EE0, offset: 0x14EE0, size: 0x8, addend: 0x0, symName: __ZNSt3__19allocatorINS_4pairINS_12basic_stringIcNS_11char_traitsIcEENS0_IcEEEEiEEE10deallocateB7v160006EPS7_m, symObjAddr: 0x3AF0, symBinAddr: 0x100006FA8, symSize: 0x40 }
  - { offsetInCU: 0x14F22, offset: 0x14F22, size: 0x8, addend: 0x0, symName: __ZNKSt3__114__split_bufferINS_4pairINS_12basic_stringIcNS_11char_traitsIcEENS_9allocatorIcEEEEiEERNS5_IS8_EEE9__end_capB7v160006Ev, symObjAddr: 0x3BAC, symBinAddr: 0x100007064, symSize: 0x28 }
  - { offsetInCU: 0x14F48, offset: 0x14F48, size: 0x8, addend: 0x0, symName: __ZNKSt3__117__compressed_pairIPNS_4pairINS_12basic_stringIcNS_11char_traitsIcEENS_9allocatorIcEEEEiEERNS5_IS8_EEE5firstB7v160006Ev, symObjAddr: 0x3BD4, symBinAddr: 0x10000708C, symSize: 0x24 }
  - { offsetInCU: 0x14F6E, offset: 0x14F6E, size: 0x8, addend: 0x0, symName: __ZNSt3__114basic_ifstreamIcNS_11char_traitsIcEEED2Ev, symObjAddr: 0x3BF8, symBinAddr: 0x1000070B0, symSize: 0x64 }
  - { offsetInCU: 0x14FA8, offset: 0x14FA8, size: 0x8, addend: 0x0, symName: __ZTv0_n24_NSt3__114basic_ifstreamIcNS_11char_traitsIcEEED1Ev, symObjAddr: 0x3C5C, symBinAddr: 0x100007114, symSize: 0x28 }
  - { offsetInCU: 0x14FBF, offset: 0x14FBF, size: 0x8, addend: 0x0, symName: __ZNSt3__16vectorINS0_INS_4pairINS_12basic_stringIcNS_11char_traitsIcEENS_9allocatorIcEEEEiEENS5_IS8_EEEENS5_ISA_EEEC1ERKSC_, symObjAddr: 0x3C84, symBinAddr: 0x10000713C, symSize: 0x34 }
  - { offsetInCU: 0x14FFA, offset: 0x14FFA, size: 0x8, addend: 0x0, symName: __ZNSt3__16vectorINS0_INS_4pairINS_12basic_stringIcNS_11char_traitsIcEENS_9allocatorIcEEEEiEENS5_IS8_EEEENS5_ISA_EEEC2ERKSC_, symObjAddr: 0x3CB8, symBinAddr: 0x100007170, symSize: 0x114 }
  - { offsetInCU: 0x15063, offset: 0x15063, size: 0x8, addend: 0x0, symName: __ZNSt3__116allocator_traitsINS_9allocatorINS_6vectorINS_4pairINS_12basic_stringIcNS_11char_traitsIcEENS1_IcEEEEiEENS1_IS9_EEEEEEE37select_on_container_copy_constructionB7v160006ISC_vvEESC_RKSC_, symObjAddr: 0x3DCC, symBinAddr: 0x100007284, symSize: 0x10 }
  - { offsetInCU: 0x15092, offset: 0x15092, size: 0x8, addend: 0x0, symName: __ZNKSt3__16vectorINS0_INS_4pairINS_12basic_stringIcNS_11char_traitsIcEENS_9allocatorIcEEEEiEENS5_IS8_EEEENS5_ISA_EEE7__allocB7v160006Ev, symObjAddr: 0x3DDC, symBinAddr: 0x100007294, symSize: 0x28 }
  - { offsetInCU: 0x150BE, offset: 0x150BE, size: 0x8, addend: 0x0, symName: __ZNSt3__117__compressed_pairIPNS_6vectorINS_4pairINS_12basic_stringIcNS_11char_traitsIcEENS_9allocatorIcEEEEiEENS6_IS9_EEEENS6_ISB_EEEC1B7v160006IDnSD_EEOT_OT0_, symObjAddr: 0x3E04, symBinAddr: 0x1000072BC, symSize: 0x3C }
  - { offsetInCU: 0x15116, offset: 0x15116, size: 0x8, addend: 0x0, symName: __ZNSt3__16vectorINS0_INS_4pairINS_12basic_stringIcNS_11char_traitsIcEENS_9allocatorIcEEEEiEENS5_IS8_EEEENS5_ISA_EEE16__destroy_vectorC1ERSC_, symObjAddr: 0x3E80, symBinAddr: 0x100007338, symSize: 0x34 }
  - { offsetInCU: 0x1514F, offset: 0x1514F, size: 0x8, addend: 0x0, symName: __ZNKSt3__16vectorINS0_INS_4pairINS_12basic_stringIcNS_11char_traitsIcEENS_9allocatorIcEEEEiEENS5_IS8_EEEENS5_ISA_EEE4sizeB7v160006Ev, symObjAddr: 0x3EC4, symBinAddr: 0x10000737C, symSize: 0x28 }
  - { offsetInCU: 0x15175, offset: 0x15175, size: 0x8, addend: 0x0, symName: __ZNSt3__16vectorINS0_INS_4pairINS_12basic_stringIcNS_11char_traitsIcEENS_9allocatorIcEEEEiEENS5_IS8_EEEENS5_ISA_EEE11__vallocateB7v160006Em, symObjAddr: 0x3EEC, symBinAddr: 0x1000073A4, symSize: 0xB4 }
  - { offsetInCU: 0x151B9, offset: 0x151B9, size: 0x8, addend: 0x0, symName: __ZNSt3__16vectorINS0_INS_4pairINS_12basic_stringIcNS_11char_traitsIcEENS_9allocatorIcEEEEiEENS5_IS8_EEEENS5_ISA_EEE18__construct_at_endIPSA_Li0EEEvT_SF_m, symObjAddr: 0x3FA0, symBinAddr: 0x100007458, symSize: 0x8C }
  - { offsetInCU: 0x1522C, offset: 0x1522C, size: 0x8, addend: 0x0, symName: __ZNSt3__128__exception_guard_exceptionsINS_6vectorINS1_INS_4pairINS_12basic_stringIcNS_11char_traitsIcEENS_9allocatorIcEEEEiEENS6_IS9_EEEENS6_ISB_EEE16__destroy_vectorEE10__completeB7v160006Ev, symObjAddr: 0x402C, symBinAddr: 0x1000074E4, symSize: 0x1C }
  - { offsetInCU: 0x15252, offset: 0x15252, size: 0x8, addend: 0x0, symName: __ZNSt3__128__exception_guard_exceptionsINS_6vectorINS1_INS_4pairINS_12basic_stringIcNS_11char_traitsIcEENS_9allocatorIcEEEEiEENS6_IS9_EEEENS6_ISB_EEE16__destroy_vectorEED1B7v160006Ev, symObjAddr: 0x4048, symBinAddr: 0x100007500, symSize: 0x2C }
  - { offsetInCU: 0x1527C, offset: 0x1527C, size: 0x8, addend: 0x0, symName: __ZNKSt3__117__compressed_pairIPNS_6vectorINS_4pairINS_12basic_stringIcNS_11char_traitsIcEENS_9allocatorIcEEEEiEENS6_IS9_EEEENS6_ISB_EEE6secondB7v160006Ev, symObjAddr: 0x4074, symBinAddr: 0x10000752C, symSize: 0x24 }
  - { offsetInCU: 0x152A2, offset: 0x152A2, size: 0x8, addend: 0x0, symName: __ZNKSt3__122__compressed_pair_elemINS_9allocatorINS_6vectorINS_4pairINS_12basic_stringIcNS_11char_traitsIcEENS1_IcEEEEiEENS1_IS9_EEEEEELi1ELb1EE5__getB7v160006Ev, symObjAddr: 0x4098, symBinAddr: 0x100007550, symSize: 0x14 }
  - { offsetInCU: 0x152C8, offset: 0x152C8, size: 0x8, addend: 0x0, symName: __ZNSt3__117__compressed_pairIPNS_6vectorINS_4pairINS_12basic_stringIcNS_11char_traitsIcEENS_9allocatorIcEEEEiEENS6_IS9_EEEENS6_ISB_EEEC2B7v160006IDnSD_EEOT_OT0_, symObjAddr: 0x40AC, symBinAddr: 0x100007564, symSize: 0x44 }
  - { offsetInCU: 0x15320, offset: 0x15320, size: 0x8, addend: 0x0, symName: __ZNSt3__122__compressed_pair_elemIPNS_6vectorINS_4pairINS_12basic_stringIcNS_11char_traitsIcEENS_9allocatorIcEEEEiEENS6_IS9_EEEELi0ELb0EEC2B7v160006IDnvEEOT_, symObjAddr: 0x40F0, symBinAddr: 0x1000075A8, symSize: 0x1C }
  - { offsetInCU: 0x15362, offset: 0x15362, size: 0x8, addend: 0x0, symName: __ZNSt3__122__compressed_pair_elemINS_9allocatorINS_6vectorINS_4pairINS_12basic_stringIcNS_11char_traitsIcEENS1_IcEEEEiEENS1_IS9_EEEEEELi1ELb1EEC2B7v160006ISC_vEEOT_, symObjAddr: 0x410C, symBinAddr: 0x1000075C4, symSize: 0x18 }
  - { offsetInCU: 0x153A4, offset: 0x153A4, size: 0x8, addend: 0x0, symName: __ZNSt3__128__exception_guard_exceptionsINS_6vectorINS1_INS_4pairINS_12basic_stringIcNS_11char_traitsIcEENS_9allocatorIcEEEEiEENS6_IS9_EEEENS6_ISB_EEE16__destroy_vectorEEC1B7v160006ESE_, symObjAddr: 0x4124, symBinAddr: 0x1000075DC, symSize: 0x34 }
  - { offsetInCU: 0x153DC, offset: 0x153DC, size: 0x8, addend: 0x0, symName: __ZNSt3__128__exception_guard_exceptionsINS_6vectorINS1_INS_4pairINS_12basic_stringIcNS_11char_traitsIcEENS_9allocatorIcEEEEiEENS6_IS9_EEEENS6_ISB_EEE16__destroy_vectorEEC2B7v160006ESE_, symObjAddr: 0x4158, symBinAddr: 0x100007610, symSize: 0x24 }
  - { offsetInCU: 0x15414, offset: 0x15414, size: 0x8, addend: 0x0, symName: __ZNSt3__16vectorINS0_INS_4pairINS_12basic_stringIcNS_11char_traitsIcEENS_9allocatorIcEEEEiEENS5_IS8_EEEENS5_ISA_EEE16__destroy_vectorC2ERSC_, symObjAddr: 0x417C, symBinAddr: 0x100007634, symSize: 0x20 }
  - { offsetInCU: 0x1544D, offset: 0x1544D, size: 0x8, addend: 0x0, symName: __ZNKSt3__16vectorINS0_INS_4pairINS_12basic_stringIcNS_11char_traitsIcEENS_9allocatorIcEEEEiEENS5_IS8_EEEENS5_ISA_EEE8max_sizeEv, symObjAddr: 0x419C, symBinAddr: 0x100007654, symSize: 0x60 }
  - { offsetInCU: 0x15475, offset: 0x15475, size: 0x8, addend: 0x0, symName: __ZNKSt3__16vectorINS0_INS_4pairINS_12basic_stringIcNS_11char_traitsIcEENS_9allocatorIcEEEEiEENS5_IS8_EEEENS5_ISA_EEE20__throw_length_errorB7v160006Ev, symObjAddr: 0x41FC, symBinAddr: 0x1000076B4, symSize: 0x1C }
  - { offsetInCU: 0x1549B, offset: 0x1549B, size: 0x8, addend: 0x0, symName: __ZNSt3__16vectorINS0_INS_4pairINS_12basic_stringIcNS_11char_traitsIcEENS_9allocatorIcEEEEiEENS5_IS8_EEEENS5_ISA_EEE7__allocB7v160006Ev, symObjAddr: 0x4258, symBinAddr: 0x100007710, symSize: 0x28 }
  - { offsetInCU: 0x154C1, offset: 0x154C1, size: 0x8, addend: 0x0, symName: __ZNSt3__16vectorINS0_INS_4pairINS_12basic_stringIcNS_11char_traitsIcEENS_9allocatorIcEEEEiEENS5_IS8_EEEENS5_ISA_EEE9__end_capB7v160006Ev, symObjAddr: 0x4280, symBinAddr: 0x100007738, symSize: 0x28 }
  - { offsetInCU: 0x154E7, offset: 0x154E7, size: 0x8, addend: 0x0, symName: __ZNKSt3__16vectorINS0_INS_4pairINS_12basic_stringIcNS_11char_traitsIcEENS_9allocatorIcEEEEiEENS5_IS8_EEEENS5_ISA_EEE14__annotate_newB7v160006Em, symObjAddr: 0x42A8, symBinAddr: 0x100007760, symSize: 0xC8 }
  - { offsetInCU: 0x1551C, offset: 0x1551C, size: 0x8, addend: 0x0, symName: __ZNSt3__116allocator_traitsINS_9allocatorINS_6vectorINS_4pairINS_12basic_stringIcNS_11char_traitsIcEENS1_IcEEEEiEENS1_IS9_EEEEEEE8max_sizeB7v160006ISC_vEEmRKSC_, symObjAddr: 0x4370, symBinAddr: 0x100007828, symSize: 0x24 }
  - { offsetInCU: 0x1554A, offset: 0x1554A, size: 0x8, addend: 0x0, symName: __ZNKSt3__19allocatorINS_6vectorINS_4pairINS_12basic_stringIcNS_11char_traitsIcEENS0_IcEEEEiEENS0_IS8_EEEEE8max_sizeB7v160006Ev, symObjAddr: 0x4394, symBinAddr: 0x10000784C, symSize: 0x18 }
  - { offsetInCU: 0x15570, offset: 0x15570, size: 0x8, addend: 0x0, symName: __ZNSt3__19allocatorINS_6vectorINS_4pairINS_12basic_stringIcNS_11char_traitsIcEENS0_IcEEEEiEENS0_IS8_EEEEE8allocateB7v160006Em, symObjAddr: 0x43AC, symBinAddr: 0x100007864, symSize: 0x5C }
  - { offsetInCU: 0x155A4, offset: 0x155A4, size: 0x8, addend: 0x0, symName: __ZNSt3__117__compressed_pairIPNS_6vectorINS_4pairINS_12basic_stringIcNS_11char_traitsIcEENS_9allocatorIcEEEEiEENS6_IS9_EEEENS6_ISB_EEE6secondB7v160006Ev, symObjAddr: 0x4408, symBinAddr: 0x1000078C0, symSize: 0x24 }
  - { offsetInCU: 0x155CA, offset: 0x155CA, size: 0x8, addend: 0x0, symName: __ZNSt3__122__compressed_pair_elemINS_9allocatorINS_6vectorINS_4pairINS_12basic_stringIcNS_11char_traitsIcEENS1_IcEEEEiEENS1_IS9_EEEEEELi1ELb1EE5__getB7v160006Ev, symObjAddr: 0x442C, symBinAddr: 0x1000078E4, symSize: 0x14 }
  - { offsetInCU: 0x155F0, offset: 0x155F0, size: 0x8, addend: 0x0, symName: __ZNSt3__117__compressed_pairIPNS_6vectorINS_4pairINS_12basic_stringIcNS_11char_traitsIcEENS_9allocatorIcEEEEiEENS6_IS9_EEEENS6_ISB_EEE5firstB7v160006Ev, symObjAddr: 0x4440, symBinAddr: 0x1000078F8, symSize: 0x24 }
  - { offsetInCU: 0x15616, offset: 0x15616, size: 0x8, addend: 0x0, symName: __ZNSt3__122__compressed_pair_elemIPNS_6vectorINS_4pairINS_12basic_stringIcNS_11char_traitsIcEENS_9allocatorIcEEEEiEENS6_IS9_EEEELi0ELb0EE5__getB7v160006Ev, symObjAddr: 0x4464, symBinAddr: 0x10000791C, symSize: 0x14 }
  - { offsetInCU: 0x1563C, offset: 0x1563C, size: 0x8, addend: 0x0, symName: __ZNKSt3__16vectorINS0_INS_4pairINS_12basic_stringIcNS_11char_traitsIcEENS_9allocatorIcEEEEiEENS5_IS8_EEEENS5_ISA_EEE31__annotate_contiguous_containerB7v160006EPKvSE_SE_SE_, symObjAddr: 0x4478, symBinAddr: 0x100007930, symSize: 0x20 }
  - { offsetInCU: 0x15692, offset: 0x15692, size: 0x8, addend: 0x0, symName: __ZNKSt3__16vectorINS0_INS_4pairINS_12basic_stringIcNS_11char_traitsIcEENS_9allocatorIcEEEEiEENS5_IS8_EEEENS5_ISA_EEE4dataB7v160006Ev, symObjAddr: 0x4498, symBinAddr: 0x100007950, symSize: 0x28 }
  - { offsetInCU: 0x156B8, offset: 0x156B8, size: 0x8, addend: 0x0, symName: __ZNKSt3__16vectorINS0_INS_4pairINS_12basic_stringIcNS_11char_traitsIcEENS_9allocatorIcEEEEiEENS5_IS8_EEEENS5_ISA_EEE8capacityB7v160006Ev, symObjAddr: 0x44C0, symBinAddr: 0x100007978, symSize: 0x40 }
  - { offsetInCU: 0x156DE, offset: 0x156DE, size: 0x8, addend: 0x0, symName: __ZNKSt3__16vectorINS0_INS_4pairINS_12basic_stringIcNS_11char_traitsIcEENS_9allocatorIcEEEEiEENS5_IS8_EEEENS5_ISA_EEE9__end_capB7v160006Ev, symObjAddr: 0x4514, symBinAddr: 0x1000079CC, symSize: 0x28 }
  - { offsetInCU: 0x15704, offset: 0x15704, size: 0x8, addend: 0x0, symName: __ZNKSt3__117__compressed_pairIPNS_6vectorINS_4pairINS_12basic_stringIcNS_11char_traitsIcEENS_9allocatorIcEEEEiEENS6_IS9_EEEENS6_ISB_EEE5firstB7v160006Ev, symObjAddr: 0x453C, symBinAddr: 0x1000079F4, symSize: 0x24 }
  - { offsetInCU: 0x1572A, offset: 0x1572A, size: 0x8, addend: 0x0, symName: __ZNKSt3__122__compressed_pair_elemIPNS_6vectorINS_4pairINS_12basic_stringIcNS_11char_traitsIcEENS_9allocatorIcEEEEiEENS6_IS9_EEEELi0ELb0EE5__getB7v160006Ev, symObjAddr: 0x4560, symBinAddr: 0x100007A18, symSize: 0x14 }
  - { offsetInCU: 0x15769, offset: 0x15769, size: 0x8, addend: 0x0, symName: __ZNSt3__16vectorINS0_INS_4pairINS_12basic_stringIcNS_11char_traitsIcEENS_9allocatorIcEEEEiEENS5_IS8_EEEENS5_ISA_EEE21_ConstructTransactionC1B7v160006ERSC_m, symObjAddr: 0x4574, symBinAddr: 0x100007A2C, symSize: 0x3C }
  - { offsetInCU: 0x157B1, offset: 0x157B1, size: 0x8, addend: 0x0, symName: __ZNSt3__16vectorINS0_INS_4pairINS_12basic_stringIcNS_11char_traitsIcEENS_9allocatorIcEEEEiEENS5_IS8_EEEENS5_ISA_EEE21_ConstructTransactionD1B7v160006Ev, symObjAddr: 0x46A4, symBinAddr: 0x100007B5C, symSize: 0x2C }
  - { offsetInCU: 0x157DB, offset: 0x157DB, size: 0x8, addend: 0x0, symName: __ZNSt3__16vectorINS0_INS_4pairINS_12basic_stringIcNS_11char_traitsIcEENS_9allocatorIcEEEEiEENS5_IS8_EEEENS5_ISA_EEE21_ConstructTransactionC2B7v160006ERSC_m, symObjAddr: 0x46D0, symBinAddr: 0x100007B88, symSize: 0x4C }
  - { offsetInCU: 0x15823, offset: 0x15823, size: 0x8, addend: 0x0, symName: __ZNSt3__129_AllocatorDestroyRangeReverseINS_9allocatorINS_6vectorINS_4pairINS_12basic_stringIcNS_11char_traitsIcEENS1_IcEEEEiEENS1_IS9_EEEEEEPSB_EC1B7v160006ERSC_RSD_SG_, symObjAddr: 0x4768, symBinAddr: 0x100007C20, symSize: 0x44 }
  - { offsetInCU: 0x1587A, offset: 0x1587A, size: 0x8, addend: 0x0, symName: __ZNSt3__116allocator_traitsINS_9allocatorINS_6vectorINS_4pairINS_12basic_stringIcNS_11char_traitsIcEENS1_IcEEEEiEENS1_IS9_EEEEEEE9constructB7v160006ISB_JRSB_EvEEvRSC_PT_DpOT0_, symObjAddr: 0x47AC, symBinAddr: 0x100007C64, symSize: 0x34 }
  - { offsetInCU: 0x158D1, offset: 0x158D1, size: 0x8, addend: 0x0, symName: __ZNSt3__128__exception_guard_exceptionsINS_29_AllocatorDestroyRangeReverseINS_9allocatorINS_6vectorINS_4pairINS_12basic_stringIcNS_11char_traitsIcEENS2_IcEEEEiEENS2_ISA_EEEEEEPSC_EEE10__completeB7v160006Ev, symObjAddr: 0x47E0, symBinAddr: 0x100007C98, symSize: 0x1C }
  - { offsetInCU: 0x158F7, offset: 0x158F7, size: 0x8, addend: 0x0, symName: __ZNSt3__128__exception_guard_exceptionsINS_29_AllocatorDestroyRangeReverseINS_9allocatorINS_6vectorINS_4pairINS_12basic_stringIcNS_11char_traitsIcEENS2_IcEEEEiEENS2_ISA_EEEEEEPSC_EEED1B7v160006Ev, symObjAddr: 0x47FC, symBinAddr: 0x100007CB4, symSize: 0x2C }
  - { offsetInCU: 0x15921, offset: 0x15921, size: 0x8, addend: 0x0, symName: __ZNSt3__128__exception_guard_exceptionsINS_29_AllocatorDestroyRangeReverseINS_9allocatorINS_6vectorINS_4pairINS_12basic_stringIcNS_11char_traitsIcEENS2_IcEEEEiEENS2_ISA_EEEEEEPSC_EEEC1B7v160006ESF_, symObjAddr: 0x4828, symBinAddr: 0x100007CE0, symSize: 0x34 }
  - { offsetInCU: 0x1595A, offset: 0x1595A, size: 0x8, addend: 0x0, symName: __ZNSt3__128__exception_guard_exceptionsINS_29_AllocatorDestroyRangeReverseINS_9allocatorINS_6vectorINS_4pairINS_12basic_stringIcNS_11char_traitsIcEENS2_IcEEEEiEENS2_ISA_EEEEEEPSC_EEEC2B7v160006ESF_, symObjAddr: 0x485C, symBinAddr: 0x100007D14, symSize: 0x30 }
  - { offsetInCU: 0x15993, offset: 0x15993, size: 0x8, addend: 0x0, symName: __ZNSt3__129_AllocatorDestroyRangeReverseINS_9allocatorINS_6vectorINS_4pairINS_12basic_stringIcNS_11char_traitsIcEENS1_IcEEEEiEENS1_IS9_EEEEEEPSB_EC2B7v160006ERSC_RSD_SG_, symObjAddr: 0x488C, symBinAddr: 0x100007D44, symSize: 0x38 }
  - { offsetInCU: 0x159EA, offset: 0x159EA, size: 0x8, addend: 0x0, symName: __ZNSt3__19allocatorINS_6vectorINS_4pairINS_12basic_stringIcNS_11char_traitsIcEENS0_IcEEEEiEENS0_IS8_EEEEE9constructB7v160006ISA_JRSA_EEEvPT_DpOT0_, symObjAddr: 0x48C4, symBinAddr: 0x100007D7C, symSize: 0x30 }
  - { offsetInCU: 0x15A40, offset: 0x15A40, size: 0x8, addend: 0x0, symName: __ZNSt3__16vectorINS_4pairINS_12basic_stringIcNS_11char_traitsIcEENS_9allocatorIcEEEEiEENS5_IS8_EEEC1ERKSA_, symObjAddr: 0x48F4, symBinAddr: 0x100007DAC, symSize: 0x34 }
  - { offsetInCU: 0x15A7B, offset: 0x15A7B, size: 0x8, addend: 0x0, symName: __ZNSt3__16vectorINS_4pairINS_12basic_stringIcNS_11char_traitsIcEENS_9allocatorIcEEEEiEENS5_IS8_EEEC2ERKSA_, symObjAddr: 0x4928, symBinAddr: 0x100007DE0, symSize: 0x114 }
  - { offsetInCU: 0x15ADA, offset: 0x15ADA, size: 0x8, addend: 0x0, symName: __ZNSt3__116allocator_traitsINS_9allocatorINS_4pairINS_12basic_stringIcNS_11char_traitsIcEENS1_IcEEEEiEEEEE37select_on_container_copy_constructionB7v160006IS9_vvEES9_RKS9_, symObjAddr: 0x4A3C, symBinAddr: 0x100007EF4, symSize: 0x10 }
  - { offsetInCU: 0x15B0F, offset: 0x15B0F, size: 0x8, addend: 0x0, symName: __ZNSt3__117__compressed_pairIPNS_4pairINS_12basic_stringIcNS_11char_traitsIcEENS_9allocatorIcEEEEiEENS5_IS8_EEEC1B7v160006IDnSA_EEOT_OT0_, symObjAddr: 0x4A4C, symBinAddr: 0x100007F04, symSize: 0x3C }
  - { offsetInCU: 0x15B67, offset: 0x15B67, size: 0x8, addend: 0x0, symName: __ZNSt3__16vectorINS_4pairINS_12basic_stringIcNS_11char_traitsIcEENS_9allocatorIcEEEEiEENS5_IS8_EEE16__destroy_vectorC1ERSA_, symObjAddr: 0x4AC8, symBinAddr: 0x100007F80, symSize: 0x34 }
  - { offsetInCU: 0x15BA0, offset: 0x15BA0, size: 0x8, addend: 0x0, symName: __ZNSt3__16vectorINS_4pairINS_12basic_stringIcNS_11char_traitsIcEENS_9allocatorIcEEEEiEENS5_IS8_EEE11__vallocateB7v160006Em, symObjAddr: 0x4B0C, symBinAddr: 0x100007FC4, symSize: 0xAC }
  - { offsetInCU: 0x15BE4, offset: 0x15BE4, size: 0x8, addend: 0x0, symName: __ZNSt3__16vectorINS_4pairINS_12basic_stringIcNS_11char_traitsIcEENS_9allocatorIcEEEEiEENS5_IS8_EEE18__construct_at_endIPS8_Li0EEEvT_SD_m, symObjAddr: 0x4BB8, symBinAddr: 0x100008070, symSize: 0x8C }
  - { offsetInCU: 0x15C57, offset: 0x15C57, size: 0x8, addend: 0x0, symName: __ZNSt3__128__exception_guard_exceptionsINS_6vectorINS_4pairINS_12basic_stringIcNS_11char_traitsIcEENS_9allocatorIcEEEEiEENS6_IS9_EEE16__destroy_vectorEE10__completeB7v160006Ev, symObjAddr: 0x4C44, symBinAddr: 0x1000080FC, symSize: 0x1C }
  - { offsetInCU: 0x15C7D, offset: 0x15C7D, size: 0x8, addend: 0x0, symName: __ZNSt3__128__exception_guard_exceptionsINS_6vectorINS_4pairINS_12basic_stringIcNS_11char_traitsIcEENS_9allocatorIcEEEEiEENS6_IS9_EEE16__destroy_vectorEED1B7v160006Ev, symObjAddr: 0x4C60, symBinAddr: 0x100008118, symSize: 0x2C }
  - { offsetInCU: 0x15CA7, offset: 0x15CA7, size: 0x8, addend: 0x0, symName: __ZNSt3__117__compressed_pairIPNS_4pairINS_12basic_stringIcNS_11char_traitsIcEENS_9allocatorIcEEEEiEENS5_IS8_EEEC2B7v160006IDnSA_EEOT_OT0_, symObjAddr: 0x4C8C, symBinAddr: 0x100008144, symSize: 0x44 }
  - { offsetInCU: 0x15CFF, offset: 0x15CFF, size: 0x8, addend: 0x0, symName: __ZNSt3__122__compressed_pair_elemINS_9allocatorINS_4pairINS_12basic_stringIcNS_11char_traitsIcEENS1_IcEEEEiEEEELi1ELb1EEC2B7v160006IS9_vEEOT_, symObjAddr: 0x4CD0, symBinAddr: 0x100008188, symSize: 0x18 }
  - { offsetInCU: 0x15D41, offset: 0x15D41, size: 0x8, addend: 0x0, symName: __ZNSt3__128__exception_guard_exceptionsINS_6vectorINS_4pairINS_12basic_stringIcNS_11char_traitsIcEENS_9allocatorIcEEEEiEENS6_IS9_EEE16__destroy_vectorEEC1B7v160006ESC_, symObjAddr: 0x4CE8, symBinAddr: 0x1000081A0, symSize: 0x34 }
  - { offsetInCU: 0x15D79, offset: 0x15D79, size: 0x8, addend: 0x0, symName: __ZNSt3__128__exception_guard_exceptionsINS_6vectorINS_4pairINS_12basic_stringIcNS_11char_traitsIcEENS_9allocatorIcEEEEiEENS6_IS9_EEE16__destroy_vectorEEC2B7v160006ESC_, symObjAddr: 0x4D1C, symBinAddr: 0x1000081D4, symSize: 0x24 }
  - { offsetInCU: 0x15DB1, offset: 0x15DB1, size: 0x8, addend: 0x0, symName: __ZNSt3__16vectorINS_4pairINS_12basic_stringIcNS_11char_traitsIcEENS_9allocatorIcEEEEiEENS5_IS8_EEE16__destroy_vectorC2ERSA_, symObjAddr: 0x4D40, symBinAddr: 0x1000081F8, symSize: 0x20 }
  - { offsetInCU: 0x15DEA, offset: 0x15DEA, size: 0x8, addend: 0x0, symName: __ZNSt3__129_AllocatorDestroyRangeReverseINS_9allocatorINS_4pairINS_12basic_stringIcNS_11char_traitsIcEENS1_IcEEEEiEEEEPS8_EC1B7v160006ERS9_RSA_SD_, symObjAddr: 0x4EA0, symBinAddr: 0x100008358, symSize: 0x44 }
  - { offsetInCU: 0x15E41, offset: 0x15E41, size: 0x8, addend: 0x0, symName: __ZNSt3__116allocator_traitsINS_9allocatorINS_4pairINS_12basic_stringIcNS_11char_traitsIcEENS1_IcEEEEiEEEEE9constructB7v160006IS8_JRS8_EvEEvRS9_PT_DpOT0_, symObjAddr: 0x4EE4, symBinAddr: 0x10000839C, symSize: 0x34 }
  - { offsetInCU: 0x15E98, offset: 0x15E98, size: 0x8, addend: 0x0, symName: __ZNSt3__128__exception_guard_exceptionsINS_29_AllocatorDestroyRangeReverseINS_9allocatorINS_4pairINS_12basic_stringIcNS_11char_traitsIcEENS2_IcEEEEiEEEEPS9_EEE10__completeB7v160006Ev, symObjAddr: 0x4F18, symBinAddr: 0x1000083D0, symSize: 0x1C }
  - { offsetInCU: 0x15EBE, offset: 0x15EBE, size: 0x8, addend: 0x0, symName: __ZNSt3__128__exception_guard_exceptionsINS_29_AllocatorDestroyRangeReverseINS_9allocatorINS_4pairINS_12basic_stringIcNS_11char_traitsIcEENS2_IcEEEEiEEEEPS9_EEED1B7v160006Ev, symObjAddr: 0x4F34, symBinAddr: 0x1000083EC, symSize: 0x2C }
  - { offsetInCU: 0x15EE8, offset: 0x15EE8, size: 0x8, addend: 0x0, symName: __ZNSt3__128__exception_guard_exceptionsINS_29_AllocatorDestroyRangeReverseINS_9allocatorINS_4pairINS_12basic_stringIcNS_11char_traitsIcEENS2_IcEEEEiEEEEPS9_EEEC1B7v160006ESC_, symObjAddr: 0x4F60, symBinAddr: 0x100008418, symSize: 0x34 }
  - { offsetInCU: 0x15F21, offset: 0x15F21, size: 0x8, addend: 0x0, symName: __ZNSt3__128__exception_guard_exceptionsINS_29_AllocatorDestroyRangeReverseINS_9allocatorINS_4pairINS_12basic_stringIcNS_11char_traitsIcEENS2_IcEEEEiEEEEPS9_EEEC2B7v160006ESC_, symObjAddr: 0x4F94, symBinAddr: 0x10000844C, symSize: 0x30 }
  - { offsetInCU: 0x15F5A, offset: 0x15F5A, size: 0x8, addend: 0x0, symName: __ZNSt3__129_AllocatorDestroyRangeReverseINS_9allocatorINS_4pairINS_12basic_stringIcNS_11char_traitsIcEENS1_IcEEEEiEEEEPS8_EC2B7v160006ERS9_RSA_SD_, symObjAddr: 0x4FC4, symBinAddr: 0x10000847C, symSize: 0x38 }
  - { offsetInCU: 0x15FB1, offset: 0x15FB1, size: 0x8, addend: 0x0, symName: __ZNSt3__19allocatorINS_4pairINS_12basic_stringIcNS_11char_traitsIcEENS0_IcEEEEiEEE9constructB7v160006IS7_JRS7_EEEvPT_DpOT0_, symObjAddr: 0x4FFC, symBinAddr: 0x1000084B4, symSize: 0x30 }
  - { offsetInCU: 0x16007, offset: 0x16007, size: 0x8, addend: 0x0, symName: __ZNSt3__14pairINS_12basic_stringIcNS_11char_traitsIcEENS_9allocatorIcEEEEiEC1ERKS7_, symObjAddr: 0x502C, symBinAddr: 0x1000084E4, symSize: 0x34 }
  - { offsetInCU: 0x1603B, offset: 0x1603B, size: 0x8, addend: 0x0, symName: __ZNSt3__14pairINS_12basic_stringIcNS_11char_traitsIcEENS_9allocatorIcEEEEiEC2ERKS7_, symObjAddr: 0x5060, symBinAddr: 0x100008518, symSize: 0x40 }
  - { offsetInCU: 0x1606F, offset: 0x1606F, size: 0x8, addend: 0x0, symName: __ZNSt3__128__exception_guard_exceptionsINS_29_AllocatorDestroyRangeReverseINS_9allocatorINS_4pairINS_12basic_stringIcNS_11char_traitsIcEENS2_IcEEEEiEEEEPS9_EEED2B7v160006Ev, symObjAddr: 0x50A0, symBinAddr: 0x100008558, symSize: 0x50 }
  - { offsetInCU: 0x16099, offset: 0x16099, size: 0x8, addend: 0x0, symName: __ZNKSt3__129_AllocatorDestroyRangeReverseINS_9allocatorINS_4pairINS_12basic_stringIcNS_11char_traitsIcEENS1_IcEEEEiEEEEPS8_EclB7v160006Ev, symObjAddr: 0x50F0, symBinAddr: 0x1000085A8, symSize: 0x68 }
  - { offsetInCU: 0x160BF, offset: 0x160BF, size: 0x8, addend: 0x0, symName: __ZNSt3__128__exception_guard_exceptionsINS_6vectorINS_4pairINS_12basic_stringIcNS_11char_traitsIcEENS_9allocatorIcEEEEiEENS6_IS9_EEE16__destroy_vectorEED2B7v160006Ev, symObjAddr: 0x51C8, symBinAddr: 0x100008680, symSize: 0x50 }
  - { offsetInCU: 0x160E9, offset: 0x160E9, size: 0x8, addend: 0x0, symName: __ZNSt3__16vectorINS_4pairINS_12basic_stringIcNS_11char_traitsIcEENS_9allocatorIcEEEEiEENS5_IS8_EEE16__destroy_vectorclB7v160006Ev, symObjAddr: 0x5218, symBinAddr: 0x1000086D0, symSize: 0x9C }
  - { offsetInCU: 0x1610F, offset: 0x1610F, size: 0x8, addend: 0x0, symName: __ZNSt3__16vectorINS_4pairINS_12basic_stringIcNS_11char_traitsIcEENS_9allocatorIcEEEEiEENS5_IS8_EEE7__clearB7v160006Ev, symObjAddr: 0x52C4, symBinAddr: 0x10000877C, symSize: 0x28 }
  - { offsetInCU: 0x16135, offset: 0x16135, size: 0x8, addend: 0x0, symName: __ZNSt3__16vectorINS_4pairINS_12basic_stringIcNS_11char_traitsIcEENS_9allocatorIcEEEEiEENS5_IS8_EEE22__base_destruct_at_endB7v160006EPS8_, symObjAddr: 0x52EC, symBinAddr: 0x1000087A4, symSize: 0x8C }
  - { offsetInCU: 0x16179, offset: 0x16179, size: 0x8, addend: 0x0, symName: __ZNSt3__128__exception_guard_exceptionsINS_29_AllocatorDestroyRangeReverseINS_9allocatorINS_6vectorINS_4pairINS_12basic_stringIcNS_11char_traitsIcEENS2_IcEEEEiEENS2_ISA_EEEEEEPSC_EEED2B7v160006Ev, symObjAddr: 0x5378, symBinAddr: 0x100008830, symSize: 0x50 }
  - { offsetInCU: 0x161A3, offset: 0x161A3, size: 0x8, addend: 0x0, symName: __ZNKSt3__129_AllocatorDestroyRangeReverseINS_9allocatorINS_6vectorINS_4pairINS_12basic_stringIcNS_11char_traitsIcEENS1_IcEEEEiEENS1_IS9_EEEEEEPSB_EclB7v160006Ev, symObjAddr: 0x53C8, symBinAddr: 0x100008880, symSize: 0x68 }
  - { offsetInCU: 0x161C9, offset: 0x161C9, size: 0x8, addend: 0x0, symName: __ZNSt3__116reverse_iteratorIPNS_6vectorINS_4pairINS_12basic_stringIcNS_11char_traitsIcEENS_9allocatorIcEEEEiEENS6_IS9_EEEEEC1B7v160006ESC_, symObjAddr: 0x54A0, symBinAddr: 0x100008958, symSize: 0x34 }
  - { offsetInCU: 0x16201, offset: 0x16201, size: 0x8, addend: 0x0, symName: __ZNSt3__116allocator_traitsINS_9allocatorINS_6vectorINS_4pairINS_12basic_stringIcNS_11char_traitsIcEENS1_IcEEEEiEENS1_IS9_EEEEEEE7destroyB7v160006ISB_vEEvRSC_PT_, symObjAddr: 0x551C, symBinAddr: 0x1000089D4, symSize: 0x2C }
  - { offsetInCU: 0x1623E, offset: 0x1623E, size: 0x8, addend: 0x0, symName: __ZNSt3__116reverse_iteratorIPNS_6vectorINS_4pairINS_12basic_stringIcNS_11char_traitsIcEENS_9allocatorIcEEEEiEENS6_IS9_EEEEEppB7v160006Ev, symObjAddr: 0x556C, symBinAddr: 0x100008A24, symSize: 0x20 }
  - { offsetInCU: 0x16264, offset: 0x16264, size: 0x8, addend: 0x0, symName: __ZNKSt3__116reverse_iteratorIPNS_6vectorINS_4pairINS_12basic_stringIcNS_11char_traitsIcEENS_9allocatorIcEEEEiEENS6_IS9_EEEEE4baseB7v160006Ev, symObjAddr: 0x558C, symBinAddr: 0x100008A44, symSize: 0x18 }
  - { offsetInCU: 0x1628A, offset: 0x1628A, size: 0x8, addend: 0x0, symName: __ZNSt3__19allocatorINS_6vectorINS_4pairINS_12basic_stringIcNS_11char_traitsIcEENS0_IcEEEEiEENS0_IS8_EEEEE7destroyB7v160006EPSA_, symObjAddr: 0x55A4, symBinAddr: 0x100008A5C, symSize: 0x28 }
  - { offsetInCU: 0x162BE, offset: 0x162BE, size: 0x8, addend: 0x0, symName: __ZNSt3__16vectorINS_4pairINS_12basic_stringIcNS_11char_traitsIcEENS_9allocatorIcEEEEiEENS5_IS8_EEED1B7v160006Ev, symObjAddr: 0x55CC, symBinAddr: 0x100008A84, symSize: 0x2C }
  - { offsetInCU: 0x162E8, offset: 0x162E8, size: 0x8, addend: 0x0, symName: __ZNSt3__16vectorINS_4pairINS_12basic_stringIcNS_11char_traitsIcEENS_9allocatorIcEEEEiEENS5_IS8_EEED2B7v160006Ev, symObjAddr: 0x55F8, symBinAddr: 0x100008AB0, symSize: 0x44 }
  - { offsetInCU: 0x16317, offset: 0x16317, size: 0x8, addend: 0x0, symName: __ZNSt3__119__to_address_helperINS_16reverse_iteratorIPNS_6vectorINS_4pairINS_12basic_stringIcNS_11char_traitsIcEENS_9allocatorIcEEEEiEENS7_ISA_EEEEEEvE6__callB7v160006ERKSE_, symObjAddr: 0x563C, symBinAddr: 0x100008AF4, symSize: 0x38 }
  - { offsetInCU: 0x1633A, offset: 0x1633A, size: 0x8, addend: 0x0, symName: __ZNKSt3__116reverse_iteratorIPNS_6vectorINS_4pairINS_12basic_stringIcNS_11char_traitsIcEENS_9allocatorIcEEEEiEENS6_IS9_EEEEEptB7v160006Ev, symObjAddr: 0x5674, symBinAddr: 0x100008B2C, symSize: 0x24 }
  - { offsetInCU: 0x16360, offset: 0x16360, size: 0x8, addend: 0x0, symName: __ZNKSt3__116reverse_iteratorIPNS_6vectorINS_4pairINS_12basic_stringIcNS_11char_traitsIcEENS_9allocatorIcEEEEiEENS6_IS9_EEEEEdeB7v160006Ev, symObjAddr: 0x5698, symBinAddr: 0x100008B50, symSize: 0x28 }
  - { offsetInCU: 0x16394, offset: 0x16394, size: 0x8, addend: 0x0, symName: __ZNSt3__116reverse_iteratorIPNS_6vectorINS_4pairINS_12basic_stringIcNS_11char_traitsIcEENS_9allocatorIcEEEEiEENS6_IS9_EEEEEC2B7v160006ESC_, symObjAddr: 0x56C0, symBinAddr: 0x100008B78, symSize: 0x28 }
  - { offsetInCU: 0x163CC, offset: 0x163CC, size: 0x8, addend: 0x0, symName: __ZNSt3__16vectorINS0_INS_4pairINS_12basic_stringIcNS_11char_traitsIcEENS_9allocatorIcEEEEiEENS5_IS8_EEEENS5_ISA_EEE21_ConstructTransactionD2B7v160006Ev, symObjAddr: 0x56E8, symBinAddr: 0x100008BA0, symSize: 0x20 }
  - { offsetInCU: 0x163F6, offset: 0x163F6, size: 0x8, addend: 0x0, symName: __ZNSt3__128__exception_guard_exceptionsINS_6vectorINS1_INS_4pairINS_12basic_stringIcNS_11char_traitsIcEENS_9allocatorIcEEEEiEENS6_IS9_EEEENS6_ISB_EEE16__destroy_vectorEED2B7v160006Ev, symObjAddr: 0x5708, symBinAddr: 0x100008BC0, symSize: 0x50 }
  - { offsetInCU: 0x16420, offset: 0x16420, size: 0x8, addend: 0x0, symName: __ZNSt3__16vectorINS0_INS_4pairINS_12basic_stringIcNS_11char_traitsIcEENS_9allocatorIcEEEEiEENS5_IS8_EEEENS5_ISA_EEE16__destroy_vectorclB7v160006Ev, symObjAddr: 0x5758, symBinAddr: 0x100008C10, symSize: 0x9C }
  - { offsetInCU: 0x16446, offset: 0x16446, size: 0x8, addend: 0x0, symName: __ZNKSt3__16vectorINS0_INS_4pairINS_12basic_stringIcNS_11char_traitsIcEENS_9allocatorIcEEEEiEENS5_IS8_EEEENS5_ISA_EEE17__annotate_deleteB7v160006Ev, symObjAddr: 0x57F4, symBinAddr: 0x100008CAC, symSize: 0xD4 }
  - { offsetInCU: 0x1646C, offset: 0x1646C, size: 0x8, addend: 0x0, symName: __ZNSt3__16vectorINS0_INS_4pairINS_12basic_stringIcNS_11char_traitsIcEENS_9allocatorIcEEEEiEENS5_IS8_EEEENS5_ISA_EEE7__clearB7v160006Ev, symObjAddr: 0x58D8, symBinAddr: 0x100008D90, symSize: 0x28 }
  - { offsetInCU: 0x16492, offset: 0x16492, size: 0x8, addend: 0x0, symName: __ZNSt3__116allocator_traitsINS_9allocatorINS_6vectorINS_4pairINS_12basic_stringIcNS_11char_traitsIcEENS1_IcEEEEiEENS1_IS9_EEEEEEE10deallocateB7v160006ERSC_PSB_m, symObjAddr: 0x5900, symBinAddr: 0x100008DB8, symSize: 0x34 }
  - { offsetInCU: 0x164D4, offset: 0x164D4, size: 0x8, addend: 0x0, symName: __ZNSt3__16vectorINS0_INS_4pairINS_12basic_stringIcNS_11char_traitsIcEENS_9allocatorIcEEEEiEENS5_IS8_EEEENS5_ISA_EEE22__base_destruct_at_endB7v160006EPSA_, symObjAddr: 0x5934, symBinAddr: 0x100008DEC, symSize: 0x8C }
  - { offsetInCU: 0x16518, offset: 0x16518, size: 0x8, addend: 0x0, symName: __ZNSt3__19allocatorINS_6vectorINS_4pairINS_12basic_stringIcNS_11char_traitsIcEENS0_IcEEEEiEENS0_IS8_EEEEE10deallocateB7v160006EPSA_m, symObjAddr: 0x59C0, symBinAddr: 0x100008E78, symSize: 0x44 }
  - { offsetInCU: 0x1655A, offset: 0x1655A, size: 0x8, addend: 0x0, symName: __ZNKSt3__111__wrap_iterIPNS_6vectorINS_4pairINS_12basic_stringIcNS_11char_traitsIcEENS_9allocatorIcEEEEiEENS6_IS9_EEEEE4baseB7v160006Ev, symObjAddr: 0x5A4C, symBinAddr: 0x100008F04, symSize: 0x18 }
  - { offsetInCU: 0x16580, offset: 0x16580, size: 0x8, addend: 0x0, symName: __ZNKSt3__111__wrap_iterIPKNS_4pairINS_12basic_stringIcNS_11char_traitsIcEENS_9allocatorIcEEEEiEEE4baseB7v160006Ev, symObjAddr: 0x5AAC, symBinAddr: 0x100008F64, symSize: 0x18 }
  - { offsetInCU: 0x165AB, offset: 0x165AB, size: 0x8, addend: 0x0, symName: __ZNSt3__14pairIiNS_12basic_stringIcNS_11char_traitsIcEENS_9allocatorIcEEEEEC1B7v160006ILb1ELPv0EEERKiRKS6_, symObjAddr: 0x5AC4, symBinAddr: 0x100008F7C, symSize: 0x3C }
  - { offsetInCU: 0x16601, offset: 0x16601, size: 0x8, addend: 0x0, symName: __ZNSt3__14pairIiNS_12basic_stringIcNS_11char_traitsIcEENS_9allocatorIcEEEEEC2B7v160006ILb1ELPv0EEERKiRKS6_, symObjAddr: 0x5B00, symBinAddr: 0x100008FB8, symSize: 0x48 }
  - { offsetInCU: 0x16657, offset: 0x16657, size: 0x8, addend: 0x0, symName: __ZNSt3__14pairIiNS_12basic_stringIcNS_11char_traitsIcEENS_9allocatorIcEEEEED2Ev, symObjAddr: 0x5B48, symBinAddr: 0x100009000, symSize: 0x30 }
  - { offsetInCU: 0x16683, offset: 0x16683, size: 0x8, addend: 0x0, symName: __ZNSt3__111__wrap_iterIPKNS_4pairIiNS_12basic_stringIcNS_11char_traitsIcEENS_9allocatorIcEEEEEEEC2B7v160006IPS8_EERKNS0_IT_EEPNS_9enable_ifIXsr14is_convertibleISE_SA_EE5valueEvE4typeE, symObjAddr: 0x5B78, symBinAddr: 0x100009030, symSize: 0x40 }
  - { offsetInCU: 0x166CE, offset: 0x166CE, size: 0x8, addend: 0x0, symName: __ZNKSt3__111__wrap_iterIPNS_4pairIiNS_12basic_stringIcNS_11char_traitsIcEENS_9allocatorIcEEEEEEE4baseB7v160006Ev, symObjAddr: 0x5BB8, symBinAddr: 0x100009070, symSize: 0x18 }
  - { offsetInCU: 0x166F4, offset: 0x166F4, size: 0x8, addend: 0x0, symName: __ZNSt3__114priority_queueINS_4pairIiNS_12basic_stringIcNS_11char_traitsIcEENS_9allocatorIcEEEEEENS_6vectorIS8_NS5_IS8_EEEENS_7greaterIS8_EEED2Ev, symObjAddr: 0x5BD0, symBinAddr: 0x100009088, symSize: 0x2C }
  - { offsetInCU: 0x16721, offset: 0x16721, size: 0x8, addend: 0x0, symName: __ZN9HashTableC2Ei, symObjAddr: 0x5BFC, symBinAddr: 0x1000090B4, symSize: 0x40 }
  - { offsetInCU: 0x16759, offset: 0x16759, size: 0x8, addend: 0x0, symName: __ZNSt3__16vectorINS0_INS_4pairINS_12basic_stringIcNS_11char_traitsIcEENS_9allocatorIcEEEEiEENS5_IS8_EEEENS5_ISA_EEEC1Em, symObjAddr: 0x5C3C, symBinAddr: 0x1000090F4, symSize: 0x34 }
  - { offsetInCU: 0x16794, offset: 0x16794, size: 0x8, addend: 0x0, symName: __ZNSt3__16vectorINS0_INS_4pairINS_12basic_stringIcNS_11char_traitsIcEENS_9allocatorIcEEEEiEENS5_IS8_EEEENS5_ISA_EEEC2Em, symObjAddr: 0x5C70, symBinAddr: 0x100009128, symSize: 0xDC }
  - { offsetInCU: 0x167EA, offset: 0x167EA, size: 0x8, addend: 0x0, symName: __ZNSt3__117__compressed_pairIPNS_6vectorINS_4pairINS_12basic_stringIcNS_11char_traitsIcEENS_9allocatorIcEEEEiEENS6_IS9_EEEENS6_ISB_EEEC1B7v160006IDnNS_18__default_init_tagEEEOT_OT0_, symObjAddr: 0x5D4C, symBinAddr: 0x100009204, symSize: 0x3C }
  - { offsetInCU: 0x16842, offset: 0x16842, size: 0x8, addend: 0x0, symName: __ZNSt3__16vectorINS0_INS_4pairINS_12basic_stringIcNS_11char_traitsIcEENS_9allocatorIcEEEEiEENS5_IS8_EEEENS5_ISA_EEE18__construct_at_endEm, symObjAddr: 0x5D88, symBinAddr: 0x100009240, symSize: 0xC8 }
  - { offsetInCU: 0x168B5, offset: 0x168B5, size: 0x8, addend: 0x0, symName: __ZNSt3__117__compressed_pairIPNS_6vectorINS_4pairINS_12basic_stringIcNS_11char_traitsIcEENS_9allocatorIcEEEEiEENS6_IS9_EEEENS6_ISB_EEEC2B7v160006IDnNS_18__default_init_tagEEEOT_OT0_, symObjAddr: 0x5E50, symBinAddr: 0x100009308, symSize: 0x40 }
  - { offsetInCU: 0x1690D, offset: 0x1690D, size: 0x8, addend: 0x0, symName: __ZNSt3__122__compressed_pair_elemINS_9allocatorINS_6vectorINS_4pairINS_12basic_stringIcNS_11char_traitsIcEENS1_IcEEEEiEENS1_IS9_EEEEEELi1ELb1EEC2B7v160006ENS_18__default_init_tagE, symObjAddr: 0x5E90, symBinAddr: 0x100009348, symSize: 0x2C }
  - { offsetInCU: 0x16941, offset: 0x16941, size: 0x8, addend: 0x0, symName: __ZNSt3__19allocatorINS_6vectorINS_4pairINS_12basic_stringIcNS_11char_traitsIcEENS0_IcEEEEiEENS0_IS8_EEEEEC2B7v160006Ev, symObjAddr: 0x5EBC, symBinAddr: 0x100009374, symSize: 0x2C }
  - { offsetInCU: 0x1696B, offset: 0x1696B, size: 0x8, addend: 0x0, symName: __ZNSt3__116__non_trivial_ifILb1ENS_9allocatorINS_6vectorINS_4pairINS_12basic_stringIcNS_11char_traitsIcEENS1_IcEEEEiEENS1_IS9_EEEEEEEC2B7v160006Ev, symObjAddr: 0x5EE8, symBinAddr: 0x1000093A0, symSize: 0x14 }
  - { offsetInCU: 0x16995, offset: 0x16995, size: 0x8, addend: 0x0, symName: __ZNSt3__116allocator_traitsINS_9allocatorINS_6vectorINS_4pairINS_12basic_stringIcNS_11char_traitsIcEENS1_IcEEEEiEENS1_IS9_EEEEEEE9constructB7v160006ISB_JEvEEvRSC_PT_DpOT0_, symObjAddr: 0x5EFC, symBinAddr: 0x1000093B4, symSize: 0x2C }
  - { offsetInCU: 0x169D7, offset: 0x169D7, size: 0x8, addend: 0x0, symName: __ZNSt3__19allocatorINS_6vectorINS_4pairINS_12basic_stringIcNS_11char_traitsIcEENS0_IcEEEEiEENS0_IS8_EEEEE9constructB7v160006ISA_JEEEvPT_DpOT0_, symObjAddr: 0x5F28, symBinAddr: 0x1000093E0, symSize: 0x28 }
  - { offsetInCU: 0x16A19, offset: 0x16A19, size: 0x8, addend: 0x0, symName: __ZNSt3__16vectorINS_4pairINS_12basic_stringIcNS_11char_traitsIcEENS_9allocatorIcEEEEiEENS5_IS8_EEEC1B7v160006Ev, symObjAddr: 0x5F50, symBinAddr: 0x100009408, symSize: 0x2C }
  - { offsetInCU: 0x16A43, offset: 0x16A43, size: 0x8, addend: 0x0, symName: __ZNSt3__16vectorINS_4pairINS_12basic_stringIcNS_11char_traitsIcEENS_9allocatorIcEEEEiEENS5_IS8_EEEC2B7v160006Ev, symObjAddr: 0x5F7C, symBinAddr: 0x100009434, symSize: 0x54 }
  - { offsetInCU: 0x16A6D, offset: 0x16A6D, size: 0x8, addend: 0x0, symName: __ZNSt3__117__compressed_pairIPNS_4pairINS_12basic_stringIcNS_11char_traitsIcEENS_9allocatorIcEEEEiEENS5_IS8_EEEC1B7v160006IDnNS_18__default_init_tagEEEOT_OT0_, symObjAddr: 0x5FD0, symBinAddr: 0x100009488, symSize: 0x3C }
  - { offsetInCU: 0x16AC5, offset: 0x16AC5, size: 0x8, addend: 0x0, symName: __ZNSt3__117__compressed_pairIPNS_4pairINS_12basic_stringIcNS_11char_traitsIcEENS_9allocatorIcEEEEiEENS5_IS8_EEEC2B7v160006IDnNS_18__default_init_tagEEEOT_OT0_, symObjAddr: 0x600C, symBinAddr: 0x1000094C4, symSize: 0x40 }
  - { offsetInCU: 0x16B1D, offset: 0x16B1D, size: 0x8, addend: 0x0, symName: __ZNSt3__122__compressed_pair_elemINS_9allocatorINS_4pairINS_12basic_stringIcNS_11char_traitsIcEENS1_IcEEEEiEEEELi1ELb1EEC2B7v160006ENS_18__default_init_tagE, symObjAddr: 0x604C, symBinAddr: 0x100009504, symSize: 0x2C }
  - { offsetInCU: 0x16B51, offset: 0x16B51, size: 0x8, addend: 0x0, symName: __ZNSt3__19allocatorINS_4pairINS_12basic_stringIcNS_11char_traitsIcEENS0_IcEEEEiEEEC2B7v160006Ev, symObjAddr: 0x6078, symBinAddr: 0x100009530, symSize: 0x2C }
  - { offsetInCU: 0x16B7B, offset: 0x16B7B, size: 0x8, addend: 0x0, symName: __ZNSt3__116__non_trivial_ifILb1ENS_9allocatorINS_4pairINS_12basic_stringIcNS_11char_traitsIcEENS1_IcEEEEiEEEEEC2B7v160006Ev, symObjAddr: 0x60A4, symBinAddr: 0x10000955C, symSize: 0x14 }
  - { offsetInCU: 0x16BA5, offset: 0x16BA5, size: 0x8, addend: 0x0, symName: __ZNKSt3__16chrono8durationIxNS_5ratioILl1ELl1000000000EEEE5countB7v160006Ev, symObjAddr: 0x6108, symBinAddr: 0x1000095C0, symSize: 0x18 }
  - { offsetInCU: 0x16BD5, offset: 0x16BD5, size: 0x8, addend: 0x0, symName: __ZNSt3__16chrono8durationIdNS_5ratioILl1ELl1EEEEC1B7v160006IdEERKT_PNS_9enable_ifIXaasr14is_convertibleIS8_dEE5valueooL_ZNS_17integral_constantIbLb1EE5valueEEntsr23treat_as_floating_pointIS6_EE5valueEvE4typeE, symObjAddr: 0x6120, symBinAddr: 0x1000095D8, symSize: 0x3C }
  - { offsetInCU: 0x16C22, offset: 0x16C22, size: 0x8, addend: 0x0, symName: __ZNSt3__16chrono8durationIdNS_5ratioILl1ELl1EEEEC2B7v160006IdEERKT_PNS_9enable_ifIXaasr14is_convertibleIS8_dEE5valueooL_ZNS_17integral_constantIbLb1EE5valueEEntsr23treat_as_floating_pointIS6_EE5valueEvE4typeE, symObjAddr: 0x615C, symBinAddr: 0x100009614, symSize: 0x28 }
  - { offsetInCU: 0x16C8D, offset: 0x16C8D, size: 0x8, addend: 0x0, symName: __ZNKSt3__16chrono10time_pointINS0_12steady_clockENS0_8durationIxNS_5ratioILl1ELl1000000000EEEEEE16time_since_epochB7v160006Ev, symObjAddr: 0x61F4, symBinAddr: 0x1000096AC, symSize: 0x20 }
  - { offsetInCU: 0x16CBD, offset: 0x16CBD, size: 0x8, addend: 0x0, symName: __ZNSt3__16chrono8durationIxNS_5ratioILl1ELl1000000000EEEEC1B7v160006IxEERKT_PNS_9enable_ifIXaasr14is_convertibleIS8_xEE5valueooL_ZNS_17integral_constantIbLb0EE5valueEEntsr23treat_as_floating_pointIS6_EE5valueEvE4typeE, symObjAddr: 0x6214, symBinAddr: 0x1000096CC, symSize: 0x3C }
  - { offsetInCU: 0x16D0A, offset: 0x16D0A, size: 0x8, addend: 0x0, symName: __ZNSt3__16chrono8durationIxNS_5ratioILl1ELl1000000000EEEEC2B7v160006IxEERKT_PNS_9enable_ifIXaasr14is_convertibleIS8_xEE5valueooL_ZNS_17integral_constantIbLb0EE5valueEEntsr23treat_as_floating_pointIS6_EE5valueEvE4typeE, symObjAddr: 0x6250, symBinAddr: 0x100009708, symSize: 0x28 }
  - { offsetInCU: 0x16D57, offset: 0x16D57, size: 0x8, addend: 0x0, symName: __ZN9HashTableD2Ev, symObjAddr: 0x62C0, symBinAddr: 0x100009778, symSize: 0x30 }
  - { offsetInCU: 0x16D83, offset: 0x16D83, size: 0x8, addend: 0x0, symName: __ZNSt3__112basic_stringIcNS_11char_traitsIcEENS_9allocatorIcEEEC2B7v160006Ev, symObjAddr: 0x62F0, symBinAddr: 0x1000097A8, symSize: 0x4C }
  - { offsetInCU: 0x16DAD, offset: 0x16DAD, size: 0x8, addend: 0x0, symName: __ZNSt3__117__compressed_pairINS_12basic_stringIcNS_11char_traitsIcEENS_9allocatorIcEEE5__repES5_EC1B7v160006INS_18__default_init_tagESA_EEOT_OT0_, symObjAddr: 0x633C, symBinAddr: 0x1000097F4, symSize: 0x3C }
  - { offsetInCU: 0x16E05, offset: 0x16E05, size: 0x8, addend: 0x0, symName: __ZNSt3__117__compressed_pairINS_12basic_stringIcNS_11char_traitsIcEENS_9allocatorIcEEE5__repES5_EC2B7v160006INS_18__default_init_tagESA_EEOT_OT0_, symObjAddr: 0x6378, symBinAddr: 0x100009830, symSize: 0x3C }
  - { offsetInCU: 0x16E5D, offset: 0x16E5D, size: 0x8, addend: 0x0, symName: __ZNSt3__122__compressed_pair_elemINS_12basic_stringIcNS_11char_traitsIcEENS_9allocatorIcEEE5__repELi0ELb0EEC2B7v160006ENS_18__default_init_tagE, symObjAddr: 0x63B4, symBinAddr: 0x10000986C, symSize: 0x14 }
  - { offsetInCU: 0x16E91, offset: 0x16E91, size: 0x8, addend: 0x0, symName: __ZNSt3__122__compressed_pair_elemINS_9allocatorIcEELi1ELb1EEC2B7v160006ENS_18__default_init_tagE, symObjAddr: 0x63C8, symBinAddr: 0x100009880, symSize: 0x2C }
  - { offsetInCU: 0x16EC5, offset: 0x16EC5, size: 0x8, addend: 0x0, symName: __ZNSt3__19allocatorIcEC2B7v160006Ev, symObjAddr: 0x63F4, symBinAddr: 0x1000098AC, symSize: 0x2C }
  - { offsetInCU: 0x16EEF, offset: 0x16EEF, size: 0x8, addend: 0x0, symName: __ZNSt3__116__non_trivial_ifILb1ENS_9allocatorIcEEEC2B7v160006Ev, symObjAddr: 0x6420, symBinAddr: 0x1000098D8, symSize: 0x14 }
  - { offsetInCU: 0x16F19, offset: 0x16F19, size: 0x8, addend: 0x0, symName: __ZNSt3__16vectorINS0_INS_4pairINS_12basic_stringIcNS_11char_traitsIcEENS_9allocatorIcEEEEiEENS5_IS8_EEEENS5_ISA_EEED2B7v160006Ev, symObjAddr: 0x6434, symBinAddr: 0x1000098EC, symSize: 0x44 }
  - { offsetInCU: 0x16F43, offset: 0x16F43, size: 0x8, addend: 0x0, symName: __ZNSt3__19basic_iosIcNS_11char_traitsIcEEEC2B7v160006Ev, symObjAddr: 0x6478, symBinAddr: 0x100009930, symSize: 0x44 }
  - { offsetInCU: 0x16F6D, offset: 0x16F6D, size: 0x8, addend: 0x0, symName: __ZNSt3__113basic_istreamIcNS_11char_traitsIcEEEC2B7v160006EPNS_15basic_streambufIcS2_EE, symObjAddr: 0x64BC, symBinAddr: 0x100009974, symSize: 0x64 }
  - { offsetInCU: 0x16FB2, offset: 0x16FB2, size: 0x8, addend: 0x0, symName: __ZNSt3__113basic_filebufIcNS_11char_traitsIcEEE4openERKNS_12basic_stringIcS2_NS_9allocatorIcEEEEj, symObjAddr: 0x6520, symBinAddr: 0x1000099D8, symSize: 0x44 }
  - { offsetInCU: 0x16FF6, offset: 0x16FF6, size: 0x8, addend: 0x0, symName: __ZNSt3__19basic_iosIcNS_11char_traitsIcEEE8setstateB7v160006Ej, symObjAddr: 0x6564, symBinAddr: 0x100009A1C, symSize: 0x2C }
  - { offsetInCU: 0x1702B, offset: 0x1702B, size: 0x8, addend: 0x0, symName: __ZNSt3__18ios_baseC2B7v160006Ev, symObjAddr: 0x6590, symBinAddr: 0x100009A48, symSize: 0x24 }
  - { offsetInCU: 0x17055, offset: 0x17055, size: 0x8, addend: 0x0, symName: __ZNSt3__19basic_iosIcNS_11char_traitsIcEEE4initB7v160006EPNS_15basic_streambufIcS2_EE, symObjAddr: 0x65B4, symBinAddr: 0x100009A6C, symSize: 0x44 }
  - { offsetInCU: 0x1708C, offset: 0x1708C, size: 0x8, addend: 0x0, symName: __ZNSt3__111char_traitsIcE3eofEv, symObjAddr: 0x65F8, symBinAddr: 0x100009AB0, symSize: 0x8 }
  - { offsetInCU: 0x170A0, offset: 0x170A0, size: 0x8, addend: 0x0, symName: __ZNKSt3__112basic_stringIcNS_11char_traitsIcEENS_9allocatorIcEEE5c_strB7v160006Ev, symObjAddr: 0x6600, symBinAddr: 0x100009AB8, symSize: 0x24 }
  - { offsetInCU: 0x170C6, offset: 0x170C6, size: 0x8, addend: 0x0, symName: __ZNSt3__18ios_base8setstateB7v160006Ej, symObjAddr: 0x6624, symBinAddr: 0x100009ADC, symSize: 0x34 }
  - { offsetInCU: 0x170FD, offset: 0x170FD, size: 0x8, addend: 0x0, symName: __ZNKSt3__19basic_iosIcNS_11char_traitsIcEEE4failB7v160006Ev, symObjAddr: 0x6658, symBinAddr: 0x100009B10, symSize: 0x28 }
  - { offsetInCU: 0x17123, offset: 0x17123, size: 0x8, addend: 0x0, symName: __ZNKSt3__18ios_base4failB7v160006Ev, symObjAddr: 0x6680, symBinAddr: 0x100009B38, symSize: 0x28 }
  - { offsetInCU: 0x1714B, offset: 0x1714B, size: 0x8, addend: 0x0, symName: __ZNSt3__111char_traitsIcE6lengthEPKc, symObjAddr: 0x6894, symBinAddr: 0x100009D4C, symSize: 0x34 }
  - { offsetInCU: 0x1718C, offset: 0x1718C, size: 0x8, addend: 0x0, symName: __ZNKSt3__113basic_ostreamIcNS_11char_traitsIcEEE6sentrycvbB7v160006Ev, symObjAddr: 0x68C8, symBinAddr: 0x100009D80, symSize: 0x1C }
  - { offsetInCU: 0x171B2, offset: 0x171B2, size: 0x8, addend: 0x0, symName: __ZNSt3__119ostreambuf_iteratorIcNS_11char_traitsIcEEEC1B7v160006ERNS_13basic_ostreamIcS2_EE, symObjAddr: 0x6B24, symBinAddr: 0x100009FDC, symSize: 0x34 }
  - { offsetInCU: 0x171EA, offset: 0x171EA, size: 0x8, addend: 0x0, symName: __ZNKSt3__18ios_base5flagsB7v160006Ev, symObjAddr: 0x6B58, symBinAddr: 0x10000A010, symSize: 0x18 }
  - { offsetInCU: 0x17212, offset: 0x17212, size: 0x8, addend: 0x0, symName: __ZNKSt3__19basic_iosIcNS_11char_traitsIcEEE4fillB7v160006Ev, symObjAddr: 0x6B70, symBinAddr: 0x10000A028, symSize: 0x64 }
  - { offsetInCU: 0x1723A, offset: 0x1723A, size: 0x8, addend: 0x0, symName: __ZNKSt3__119ostreambuf_iteratorIcNS_11char_traitsIcEEE6failedB7v160006Ev, symObjAddr: 0x6BD4, symBinAddr: 0x10000A08C, symSize: 0x24 }
  - { offsetInCU: 0x17260, offset: 0x17260, size: 0x8, addend: 0x0, symName: __ZNKSt3__18ios_base5widthB7v160006Ev, symObjAddr: 0x6BF8, symBinAddr: 0x10000A0B0, symSize: 0x18 }
  - { offsetInCU: 0x17288, offset: 0x17288, size: 0x8, addend: 0x0, symName: __ZNSt3__115basic_streambufIcNS_11char_traitsIcEEE5sputnB7v160006EPKcl, symObjAddr: 0x6C10, symBinAddr: 0x10000A0C8, symSize: 0x3C }
  - { offsetInCU: 0x172CA, offset: 0x172CA, size: 0x8, addend: 0x0, symName: __ZNSt3__112basic_stringIcNS_11char_traitsIcEENS_9allocatorIcEEEC1B7v160006Emc, symObjAddr: 0x6C4C, symBinAddr: 0x10000A104, symSize: 0x3C }
  - { offsetInCU: 0x17312, offset: 0x17312, size: 0x8, addend: 0x0, symName: __ZNSt3__18ios_base5widthB7v160006El, symObjAddr: 0x6C88, symBinAddr: 0x10000A140, symSize: 0x2C }
  - { offsetInCU: 0x17358, offset: 0x17358, size: 0x8, addend: 0x0, symName: __ZNSt3__112basic_stringIcNS_11char_traitsIcEENS_9allocatorIcEEEC2B7v160006Emc, symObjAddr: 0x6CB4, symBinAddr: 0x10000A16C, symSize: 0x54 }
  - { offsetInCU: 0x173A0, offset: 0x173A0, size: 0x8, addend: 0x0, symName: __ZNSt3__119ostreambuf_iteratorIcNS_11char_traitsIcEEEC2B7v160006ERNS_13basic_ostreamIcS2_EE, symObjAddr: 0x6D08, symBinAddr: 0x10000A1C0, symSize: 0x54 }
  - { offsetInCU: 0x173D8, offset: 0x173D8, size: 0x8, addend: 0x0, symName: __ZNKSt3__19basic_iosIcNS_11char_traitsIcEEE5rdbufB7v160006Ev, symObjAddr: 0x6D5C, symBinAddr: 0x10000A214, symSize: 0x24 }
  - { offsetInCU: 0x17400, offset: 0x17400, size: 0x8, addend: 0x0, symName: __ZNKSt3__18ios_base5rdbufB7v160006Ev, symObjAddr: 0x6D80, symBinAddr: 0x10000A238, symSize: 0x18 }
  - { offsetInCU: 0x17426, offset: 0x17426, size: 0x8, addend: 0x0, symName: __ZNSt3__111char_traitsIcE11eq_int_typeEii, symObjAddr: 0x6D98, symBinAddr: 0x10000A250, symSize: 0x28 }
  - { offsetInCU: 0x17457, offset: 0x17457, size: 0x8, addend: 0x0, symName: __ZNKSt3__19basic_iosIcNS_11char_traitsIcEEE5widenB7v160006Ec, symObjAddr: 0x6DC0, symBinAddr: 0x10000A278, symSize: 0x84 }
  - { offsetInCU: 0x174C5, offset: 0x174C5, size: 0x8, addend: 0x0, symName: __ZNKSt3__15ctypeIcE5widenB7v160006Ec, symObjAddr: 0x6E70, symBinAddr: 0x10000A328, symSize: 0x38 }
  - { offsetInCU: 0x17518, offset: 0x17518, size: 0x8, addend: 0x0, symName: __ZNKSt3__113basic_istreamIcNS_11char_traitsIcEEE6sentrycvbB7v160006Ev, symObjAddr: 0x7104, symBinAddr: 0x10000A5BC, symSize: 0x1C }
  - { offsetInCU: 0x1753E, offset: 0x1753E, size: 0x8, addend: 0x0, symName: __ZNSt3__112basic_stringIcNS_11char_traitsIcEENS_9allocatorIcEEE5clearB7v160006Ev, symObjAddr: 0x7120, symBinAddr: 0x10000A5D8, symSize: 0x88 }
  - { offsetInCU: 0x17566, offset: 0x17566, size: 0x8, addend: 0x0, symName: __ZNSt3__115basic_streambufIcNS_11char_traitsIcEEE6sbumpcB7v160006Ev, symObjAddr: 0x71A8, symBinAddr: 0x10000A660, symSize: 0x78 }
  - { offsetInCU: 0x1758C, offset: 0x1758C, size: 0x8, addend: 0x0, symName: __ZNSt3__111char_traitsIcE12to_char_typeEi, symObjAddr: 0x7220, symBinAddr: 0x10000A6D8, symSize: 0x18 }
  - { offsetInCU: 0x175AF, offset: 0x175AF, size: 0x8, addend: 0x0, symName: __ZNSt3__111char_traitsIcE2eqEcc, symObjAddr: 0x7238, symBinAddr: 0x10000A6F0, symSize: 0x28 }
  - { offsetInCU: 0x175E0, offset: 0x175E0, size: 0x8, addend: 0x0, symName: __ZNKSt3__112basic_stringIcNS_11char_traitsIcEENS_9allocatorIcEEE8max_sizeB7v160006Ev, symObjAddr: 0x7260, symBinAddr: 0x10000A718, symSize: 0xAC }
  - { offsetInCU: 0x17633, offset: 0x17633, size: 0x8, addend: 0x0, symName: __ZNSt3__18ios_base18__setstate_nothrowB7v160006Ej, symObjAddr: 0x730C, symBinAddr: 0x10000A7C4, symSize: 0x64 }
  - { offsetInCU: 0x17668, offset: 0x17668, size: 0x8, addend: 0x0, symName: __ZNKSt3__19basic_iosIcNS_11char_traitsIcEEE10exceptionsB7v160006Ev, symObjAddr: 0x7370, symBinAddr: 0x10000A828, symSize: 0x24 }
  - { offsetInCU: 0x1768E, offset: 0x1768E, size: 0x8, addend: 0x0, symName: __ZNSt3__111char_traitsIcE6assignERcRKc, symObjAddr: 0x73A4, symBinAddr: 0x10000A85C, symSize: 0x24 }
  - { offsetInCU: 0x176BF, offset: 0x176BF, size: 0x8, addend: 0x0, symName: __ZNSt3__112basic_stringIcNS_11char_traitsIcEENS_9allocatorIcEEE18__get_long_pointerB7v160006Ev, symObjAddr: 0x73C8, symBinAddr: 0x10000A880, symSize: 0x28 }
  - { offsetInCU: 0x176E5, offset: 0x176E5, size: 0x8, addend: 0x0, symName: __ZNSt3__112basic_stringIcNS_11char_traitsIcEENS_9allocatorIcEEE15__set_long_sizeB7v160006Em, symObjAddr: 0x73F0, symBinAddr: 0x10000A8A8, symSize: 0x38 }
  - { offsetInCU: 0x1771A, offset: 0x1771A, size: 0x8, addend: 0x0, symName: __ZNSt3__112basic_stringIcNS_11char_traitsIcEENS_9allocatorIcEEE19__get_short_pointerB7v160006Ev, symObjAddr: 0x7428, symBinAddr: 0x10000A8E0, symSize: 0x28 }
  - { offsetInCU: 0x17740, offset: 0x17740, size: 0x8, addend: 0x0, symName: __ZNSt3__112basic_stringIcNS_11char_traitsIcEENS_9allocatorIcEEE16__set_short_sizeB7v160006Em, symObjAddr: 0x7450, symBinAddr: 0x10000A908, symSize: 0x78 }
  - { offsetInCU: 0x17775, offset: 0x17775, size: 0x8, addend: 0x0, symName: __ZNSt3__114pointer_traitsIPcE10pointer_toB7v160006ERc, symObjAddr: 0x74C8, symBinAddr: 0x10000A980, symSize: 0x14 }
  - { offsetInCU: 0x17798, offset: 0x17798, size: 0x8, addend: 0x0, symName: __ZNSt3__111char_traitsIcE11to_int_typeEc, symObjAddr: 0x74DC, symBinAddr: 0x10000A994, symSize: 0x14 }
  - { offsetInCU: 0x177C5, offset: 0x177C5, size: 0x8, addend: 0x0, symName: __ZNSt3__116allocator_traitsINS_9allocatorIcEEE8max_sizeB7v160006IS2_vEEmRKS2_, symObjAddr: 0x74F0, symBinAddr: 0x10000A9A8, symSize: 0x24 }
  - { offsetInCU: 0x177F3, offset: 0x177F3, size: 0x8, addend: 0x0, symName: __ZNKSt3__112basic_stringIcNS_11char_traitsIcEENS_9allocatorIcEEE7__allocB7v160006Ev, symObjAddr: 0x7514, symBinAddr: 0x10000A9CC, symSize: 0x24 }
  - { offsetInCU: 0x17819, offset: 0x17819, size: 0x8, addend: 0x0, symName: __ZNSt3__114numeric_limitsImE3maxB7v160006Ev, symObjAddr: 0x7538, symBinAddr: 0x10000A9F0, symSize: 0x14 }
  - { offsetInCU: 0x1782D, offset: 0x1782D, size: 0x8, addend: 0x0, symName: __ZNKSt3__19allocatorIcE8max_sizeB7v160006Ev, symObjAddr: 0x754C, symBinAddr: 0x10000AA04, symSize: 0x14 }
  - { offsetInCU: 0x17853, offset: 0x17853, size: 0x8, addend: 0x0, symName: __ZNKSt3__117__compressed_pairINS_12basic_stringIcNS_11char_traitsIcEENS_9allocatorIcEEE5__repES5_E6secondB7v160006Ev, symObjAddr: 0x7560, symBinAddr: 0x10000AA18, symSize: 0x24 }
  - { offsetInCU: 0x17879, offset: 0x17879, size: 0x8, addend: 0x0, symName: __ZNKSt3__122__compressed_pair_elemINS_9allocatorIcEELi1ELb1EE5__getB7v160006Ev, symObjAddr: 0x7584, symBinAddr: 0x10000AA3C, symSize: 0x14 }
  - { offsetInCU: 0x1789F, offset: 0x1789F, size: 0x8, addend: 0x0, symName: __ZNSt3__123__libcpp_numeric_limitsImLb1EE3maxB7v160006Ev, symObjAddr: 0x7598, symBinAddr: 0x10000AA50, symSize: 0x8 }
  - { offsetInCU: 0x178B3, offset: 0x178B3, size: 0x8, addend: 0x0, symName: __ZNKSt3__18ios_base10exceptionsB7v160006Ev, symObjAddr: 0x75A0, symBinAddr: 0x10000AA58, symSize: 0x18 }
  - { offsetInCU: 0x178DB, offset: 0x178DB, size: 0x8, addend: 0x0, symName: __ZNSt3__111char_traitsIcE4findEPKcmRS2_, symObjAddr: 0x77F0, symBinAddr: 0x10000ACA8, symSize: 0x70 }
  - { offsetInCU: 0x1791A, offset: 0x1791A, size: 0x8, addend: 0x0, symName: __ZNSt3__19allocatorIcEC1B7v160006Ev, symObjAddr: 0x7894, symBinAddr: 0x10000AD4C, symSize: 0x2C }
  - { offsetInCU: 0x17944, offset: 0x17944, size: 0x8, addend: 0x0, symName: __ZNSt3__114priority_queueINS_4pairIiNS_12basic_stringIcNS_11char_traitsIcEENS_9allocatorIcEEEEEENS_6vectorIS8_NS5_IS8_EEEENS_7greaterIS8_EEEC2B7v160006Ev, symObjAddr: 0x78C0, symBinAddr: 0x10000AD78, symSize: 0x2C }
  - { offsetInCU: 0x1796E, offset: 0x1796E, size: 0x8, addend: 0x0, symName: __ZNSt3__16vectorINS_4pairIiNS_12basic_stringIcNS_11char_traitsIcEENS_9allocatorIcEEEEEENS5_IS8_EEED2B7v160006Ev, symObjAddr: 0x78EC, symBinAddr: 0x10000ADA4, symSize: 0x44 }
  - { offsetInCU: 0x17998, offset: 0x17998, size: 0x8, addend: 0x0, symName: __ZNSt3__16vectorINS_4pairIiNS_12basic_stringIcNS_11char_traitsIcEENS_9allocatorIcEEEEEENS5_IS8_EEE16__destroy_vectorC1ERSA_, symObjAddr: 0x7930, symBinAddr: 0x10000ADE8, symSize: 0x34 }
  - { offsetInCU: 0x179D1, offset: 0x179D1, size: 0x8, addend: 0x0, symName: __ZNSt3__16vectorINS_4pairIiNS_12basic_stringIcNS_11char_traitsIcEENS_9allocatorIcEEEEEENS5_IS8_EEE16__destroy_vectorclB7v160006Ev, symObjAddr: 0x7964, symBinAddr: 0x10000AE1C, symSize: 0x9C }
  - { offsetInCU: 0x179F7, offset: 0x179F7, size: 0x8, addend: 0x0, symName: __ZNSt3__16vectorINS_4pairIiNS_12basic_stringIcNS_11char_traitsIcEENS_9allocatorIcEEEEEENS5_IS8_EEE16__destroy_vectorC2ERSA_, symObjAddr: 0x7A00, symBinAddr: 0x10000AEB8, symSize: 0x20 }
  - { offsetInCU: 0x17A30, offset: 0x17A30, size: 0x8, addend: 0x0, symName: __ZNKSt3__16vectorINS_4pairIiNS_12basic_stringIcNS_11char_traitsIcEENS_9allocatorIcEEEEEENS5_IS8_EEE17__annotate_deleteB7v160006Ev, symObjAddr: 0x7A20, symBinAddr: 0x10000AED8, symSize: 0xB8 }
  - { offsetInCU: 0x17A56, offset: 0x17A56, size: 0x8, addend: 0x0, symName: __ZNSt3__16vectorINS_4pairIiNS_12basic_stringIcNS_11char_traitsIcEENS_9allocatorIcEEEEEENS5_IS8_EEE7__clearB7v160006Ev, symObjAddr: 0x7AE8, symBinAddr: 0x10000AFA0, symSize: 0x28 }
  - { offsetInCU: 0x17A7C, offset: 0x17A7C, size: 0x8, addend: 0x0, symName: __ZNSt3__116allocator_traitsINS_9allocatorINS_4pairIiNS_12basic_stringIcNS_11char_traitsIcEENS1_IcEEEEEEEEE10deallocateB7v160006ERS9_PS8_m, symObjAddr: 0x7B10, symBinAddr: 0x10000AFC8, symSize: 0x34 }
  - { offsetInCU: 0x17ABE, offset: 0x17ABE, size: 0x8, addend: 0x0, symName: __ZNSt3__16vectorINS_4pairIiNS_12basic_stringIcNS_11char_traitsIcEENS_9allocatorIcEEEEEENS5_IS8_EEE7__allocB7v160006Ev, symObjAddr: 0x7B44, symBinAddr: 0x10000AFFC, symSize: 0x28 }
  - { offsetInCU: 0x17AE4, offset: 0x17AE4, size: 0x8, addend: 0x0, symName: __ZNKSt3__16vectorINS_4pairIiNS_12basic_stringIcNS_11char_traitsIcEENS_9allocatorIcEEEEEENS5_IS8_EEE8capacityB7v160006Ev, symObjAddr: 0x7B6C, symBinAddr: 0x10000B024, symSize: 0x40 }
  - { offsetInCU: 0x17B0A, offset: 0x17B0A, size: 0x8, addend: 0x0, symName: __ZNKSt3__16vectorINS_4pairIiNS_12basic_stringIcNS_11char_traitsIcEENS_9allocatorIcEEEEEENS5_IS8_EEE31__annotate_contiguous_containerB7v160006EPKvSC_SC_SC_, symObjAddr: 0x7BAC, symBinAddr: 0x10000B064, symSize: 0x20 }
  - { offsetInCU: 0x17B60, offset: 0x17B60, size: 0x8, addend: 0x0, symName: __ZNKSt3__16vectorINS_4pairIiNS_12basic_stringIcNS_11char_traitsIcEENS_9allocatorIcEEEEEENS5_IS8_EEE4dataB7v160006Ev, symObjAddr: 0x7BCC, symBinAddr: 0x10000B084, symSize: 0x28 }
  - { offsetInCU: 0x17B86, offset: 0x17B86, size: 0x8, addend: 0x0, symName: __ZNKSt3__16vectorINS_4pairIiNS_12basic_stringIcNS_11char_traitsIcEENS_9allocatorIcEEEEEENS5_IS8_EEE4sizeB7v160006Ev, symObjAddr: 0x7BF4, symBinAddr: 0x10000B0AC, symSize: 0x28 }
  - { offsetInCU: 0x17BAC, offset: 0x17BAC, size: 0x8, addend: 0x0, symName: __ZNSt3__16vectorINS_4pairIiNS_12basic_stringIcNS_11char_traitsIcEENS_9allocatorIcEEEEEENS5_IS8_EEE22__base_destruct_at_endB7v160006EPS8_, symObjAddr: 0x7C30, symBinAddr: 0x10000B0E8, symSize: 0x8C }
  - { offsetInCU: 0x17BF0, offset: 0x17BF0, size: 0x8, addend: 0x0, symName: __ZNSt3__116allocator_traitsINS_9allocatorINS_4pairIiNS_12basic_stringIcNS_11char_traitsIcEENS1_IcEEEEEEEEE7destroyB7v160006IS8_vEEvRS9_PT_, symObjAddr: 0x7CBC, symBinAddr: 0x10000B174, symSize: 0x2C }
  - { offsetInCU: 0x17C2D, offset: 0x17C2D, size: 0x8, addend: 0x0, symName: __ZNSt3__19allocatorINS_4pairIiNS_12basic_stringIcNS_11char_traitsIcEENS0_IcEEEEEEE7destroyB7v160006EPS7_, symObjAddr: 0x7CE8, symBinAddr: 0x10000B1A0, symSize: 0x28 }
  - { offsetInCU: 0x17C61, offset: 0x17C61, size: 0x8, addend: 0x0, symName: __ZNSt3__19allocatorINS_4pairIiNS_12basic_stringIcNS_11char_traitsIcEENS0_IcEEEEEEE10deallocateB7v160006EPS7_m, symObjAddr: 0x7D10, symBinAddr: 0x10000B1C8, symSize: 0x40 }
  - { offsetInCU: 0x17CA3, offset: 0x17CA3, size: 0x8, addend: 0x0, symName: __ZNSt3__117__compressed_pairIPNS_4pairIiNS_12basic_stringIcNS_11char_traitsIcEENS_9allocatorIcEEEEEENS5_IS8_EEE6secondB7v160006Ev, symObjAddr: 0x7D50, symBinAddr: 0x10000B208, symSize: 0x24 }
  - { offsetInCU: 0x17CC9, offset: 0x17CC9, size: 0x8, addend: 0x0, symName: __ZNSt3__122__compressed_pair_elemINS_9allocatorINS_4pairIiNS_12basic_stringIcNS_11char_traitsIcEENS1_IcEEEEEEEELi1ELb1EE5__getB7v160006Ev, symObjAddr: 0x7D74, symBinAddr: 0x10000B22C, symSize: 0x14 }
  - { offsetInCU: 0x17CEF, offset: 0x17CEF, size: 0x8, addend: 0x0, symName: __ZNKSt3__16vectorINS_4pairIiNS_12basic_stringIcNS_11char_traitsIcEENS_9allocatorIcEEEEEENS5_IS8_EEE9__end_capB7v160006Ev, symObjAddr: 0x7D88, symBinAddr: 0x10000B240, symSize: 0x28 }
  - { offsetInCU: 0x17D15, offset: 0x17D15, size: 0x8, addend: 0x0, symName: __ZNKSt3__117__compressed_pairIPNS_4pairIiNS_12basic_stringIcNS_11char_traitsIcEENS_9allocatorIcEEEEEENS5_IS8_EEE5firstB7v160006Ev, symObjAddr: 0x7DB0, symBinAddr: 0x10000B268, symSize: 0x24 }
  - { offsetInCU: 0x17D3B, offset: 0x17D3B, size: 0x8, addend: 0x0, symName: __ZNKSt3__122__compressed_pair_elemIPNS_4pairIiNS_12basic_stringIcNS_11char_traitsIcEENS_9allocatorIcEEEEEELi0ELb0EE5__getB7v160006Ev, symObjAddr: 0x7DD4, symBinAddr: 0x10000B28C, symSize: 0x14 }
  - { offsetInCU: 0x17D61, offset: 0x17D61, size: 0x8, addend: 0x0, symName: __ZNSt3__16vectorINS0_INS_4pairINS_12basic_stringIcNS_11char_traitsIcEENS_9allocatorIcEEEEiEENS5_IS8_EEEENS5_ISA_EEE11__make_iterB7v160006EPSA_, symObjAddr: 0x7DE8, symBinAddr: 0x10000B2A0, symSize: 0x34 }
  - { offsetInCU: 0x17D96, offset: 0x17D96, size: 0x8, addend: 0x0, symName: __ZNSt3__111__wrap_iterIPNS_6vectorINS_4pairINS_12basic_stringIcNS_11char_traitsIcEENS_9allocatorIcEEEEiEENS6_IS9_EEEEEC1B7v160006EPKvSC_, symObjAddr: 0x7E1C, symBinAddr: 0x10000B2D4, symSize: 0x3C }
  - { offsetInCU: 0x17DDC, offset: 0x17DDC, size: 0x8, addend: 0x0, symName: __ZNSt3__111__wrap_iterIPNS_6vectorINS_4pairINS_12basic_stringIcNS_11char_traitsIcEENS_9allocatorIcEEEEiEENS6_IS9_EEEEEC2B7v160006EPKvSC_, symObjAddr: 0x7E58, symBinAddr: 0x10000B310, symSize: 0x24 }
  - { offsetInCU: 0x17E22, offset: 0x17E22, size: 0x8, addend: 0x0, symName: __ZNKSt3__16vectorINS_4pairINS_12basic_stringIcNS_11char_traitsIcEENS_9allocatorIcEEEEiEENS5_IS8_EEE11__make_iterB7v160006EPKS8_, symObjAddr: 0x7E7C, symBinAddr: 0x10000B334, symSize: 0x34 }
  - { offsetInCU: 0x17E57, offset: 0x17E57, size: 0x8, addend: 0x0, symName: __ZNSt3__111__wrap_iterIPKNS_4pairINS_12basic_stringIcNS_11char_traitsIcEENS_9allocatorIcEEEEiEEEC1B7v160006EPKvSA_, symObjAddr: 0x7EB0, symBinAddr: 0x10000B368, symSize: 0x3C }
  - { offsetInCU: 0x17E9D, offset: 0x17E9D, size: 0x8, addend: 0x0, symName: __ZNSt3__111__wrap_iterIPKNS_4pairINS_12basic_stringIcNS_11char_traitsIcEENS_9allocatorIcEEEEiEEEC2B7v160006EPKvSA_, symObjAddr: 0x7EEC, symBinAddr: 0x10000B3A4, symSize: 0x24 }
  - { offsetInCU: 0x17EE3, offset: 0x17EE3, size: 0x8, addend: 0x0, symName: __ZNSt3__16vectorINS_4pairIiNS_12basic_stringIcNS_11char_traitsIcEENS_9allocatorIcEEEEEENS5_IS8_EEE9push_backB7v160006EOS8_, symObjAddr: 0x7F10, symBinAddr: 0x10000B3C8, symSize: 0x6C }
  - { offsetInCU: 0x17F1A, offset: 0x17F1A, size: 0x8, addend: 0x0, symName: __ZNSt3__16vectorINS_4pairIiNS_12basic_stringIcNS_11char_traitsIcEENS_9allocatorIcEEEEEENS5_IS8_EEE9__end_capB7v160006Ev, symObjAddr: 0x7FBC, symBinAddr: 0x10000B474, symSize: 0x28 }
  - { offsetInCU: 0x17F40, offset: 0x17F40, size: 0x8, addend: 0x0, symName: __ZNSt3__16vectorINS_4pairIiNS_12basic_stringIcNS_11char_traitsIcEENS_9allocatorIcEEEEEENS5_IS8_EEE22__construct_one_at_endB7v160006IJS8_EEEvDpOT_, symObjAddr: 0x7FE4, symBinAddr: 0x10000B49C, symSize: 0x90 }
  - { offsetInCU: 0x17F8F, offset: 0x17F8F, size: 0x8, addend: 0x0, symName: __ZNSt3__16vectorINS_4pairIiNS_12basic_stringIcNS_11char_traitsIcEENS_9allocatorIcEEEEEENS5_IS8_EEE21__push_back_slow_pathIS8_EEvOT_, symObjAddr: 0x8074, symBinAddr: 0x10000B52C, symSize: 0xD8 }
  - { offsetInCU: 0x17FED, offset: 0x17FED, size: 0x8, addend: 0x0, symName: __ZNSt3__117__compressed_pairIPNS_4pairIiNS_12basic_stringIcNS_11char_traitsIcEENS_9allocatorIcEEEEEENS5_IS8_EEE5firstB7v160006Ev, symObjAddr: 0x814C, symBinAddr: 0x10000B604, symSize: 0x24 }
  - { offsetInCU: 0x18013, offset: 0x18013, size: 0x8, addend: 0x0, symName: __ZNSt3__122__compressed_pair_elemIPNS_4pairIiNS_12basic_stringIcNS_11char_traitsIcEENS_9allocatorIcEEEEEELi0ELb0EE5__getB7v160006Ev, symObjAddr: 0x8170, symBinAddr: 0x10000B628, symSize: 0x14 }
  - { offsetInCU: 0x18052, offset: 0x18052, size: 0x8, addend: 0x0, symName: __ZNSt3__16vectorINS_4pairIiNS_12basic_stringIcNS_11char_traitsIcEENS_9allocatorIcEEEEEENS5_IS8_EEE21_ConstructTransactionC1B7v160006ERSA_m, symObjAddr: 0x8184, symBinAddr: 0x10000B63C, symSize: 0x3C }
  - { offsetInCU: 0x1809A, offset: 0x1809A, size: 0x8, addend: 0x0, symName: __ZNSt3__116allocator_traitsINS_9allocatorINS_4pairIiNS_12basic_stringIcNS_11char_traitsIcEENS1_IcEEEEEEEEE9constructB7v160006IS8_JS8_EvEEvRS9_PT_DpOT0_, symObjAddr: 0x81C0, symBinAddr: 0x10000B678, symSize: 0x34 }
  - { offsetInCU: 0x180F1, offset: 0x180F1, size: 0x8, addend: 0x0, symName: __ZNSt3__16vectorINS_4pairIiNS_12basic_stringIcNS_11char_traitsIcEENS_9allocatorIcEEEEEENS5_IS8_EEE21_ConstructTransactionD1B7v160006Ev, symObjAddr: 0x81F4, symBinAddr: 0x10000B6AC, symSize: 0x2C }
  - { offsetInCU: 0x1811B, offset: 0x1811B, size: 0x8, addend: 0x0, symName: __ZNSt3__16vectorINS_4pairIiNS_12basic_stringIcNS_11char_traitsIcEENS_9allocatorIcEEEEEENS5_IS8_EEE21_ConstructTransactionC2B7v160006ERSA_m, symObjAddr: 0x8220, symBinAddr: 0x10000B6D8, symSize: 0x44 }
  - { offsetInCU: 0x18163, offset: 0x18163, size: 0x8, addend: 0x0, symName: __ZNSt3__19allocatorINS_4pairIiNS_12basic_stringIcNS_11char_traitsIcEENS0_IcEEEEEEE9constructB7v160006IS7_JS7_EEEvPT_DpOT0_, symObjAddr: 0x8264, symBinAddr: 0x10000B71C, symSize: 0x30 }
  - { offsetInCU: 0x181B9, offset: 0x181B9, size: 0x8, addend: 0x0, symName: __ZNSt3__14pairIiNS_12basic_stringIcNS_11char_traitsIcEENS_9allocatorIcEEEEEC1EOS7_, symObjAddr: 0x8294, symBinAddr: 0x10000B74C, symSize: 0x34 }
  - { offsetInCU: 0x181ED, offset: 0x181ED, size: 0x8, addend: 0x0, symName: __ZNSt3__14pairIiNS_12basic_stringIcNS_11char_traitsIcEENS_9allocatorIcEEEEEC2EOS7_, symObjAddr: 0x82C8, symBinAddr: 0x10000B780, symSize: 0x48 }
  - { offsetInCU: 0x18221, offset: 0x18221, size: 0x8, addend: 0x0, symName: __ZNSt3__16vectorINS_4pairIiNS_12basic_stringIcNS_11char_traitsIcEENS_9allocatorIcEEEEEENS5_IS8_EEE21_ConstructTransactionD2B7v160006Ev, symObjAddr: 0x8310, symBinAddr: 0x10000B7C8, symSize: 0x20 }
  - { offsetInCU: 0x1824B, offset: 0x1824B, size: 0x8, addend: 0x0, symName: __ZNKSt3__16vectorINS_4pairIiNS_12basic_stringIcNS_11char_traitsIcEENS_9allocatorIcEEEEEENS5_IS8_EEE11__recommendB7v160006Em, symObjAddr: 0x8330, symBinAddr: 0x10000B7E8, symSize: 0xB4 }
  - { offsetInCU: 0x182A0, offset: 0x182A0, size: 0x8, addend: 0x0, symName: __ZNSt3__114__split_bufferINS_4pairIiNS_12basic_stringIcNS_11char_traitsIcEENS_9allocatorIcEEEEEERNS5_IS8_EEEC1EmmSA_, symObjAddr: 0x83E4, symBinAddr: 0x10000B89C, symSize: 0x44 }
  - { offsetInCU: 0x182F6, offset: 0x182F6, size: 0x8, addend: 0x0, symName: __ZNSt3__114__split_bufferINS_4pairIiNS_12basic_stringIcNS_11char_traitsIcEENS_9allocatorIcEEEEEERNS5_IS8_EEED1Ev, symObjAddr: 0x8540, symBinAddr: 0x10000B9F8, symSize: 0x2C }
  - { offsetInCU: 0x18322, offset: 0x18322, size: 0x8, addend: 0x0, symName: __ZNKSt3__16vectorINS_4pairIiNS_12basic_stringIcNS_11char_traitsIcEENS_9allocatorIcEEEEEENS5_IS8_EEE8max_sizeEv, symObjAddr: 0x856C, symBinAddr: 0x10000BA24, symSize: 0x60 }
  - { offsetInCU: 0x1834A, offset: 0x1834A, size: 0x8, addend: 0x0, symName: __ZNKSt3__16vectorINS_4pairIiNS_12basic_stringIcNS_11char_traitsIcEENS_9allocatorIcEEEEEENS5_IS8_EEE20__throw_length_errorB7v160006Ev, symObjAddr: 0x85CC, symBinAddr: 0x10000BA84, symSize: 0x1C }
  - { offsetInCU: 0x1837A, offset: 0x1837A, size: 0x8, addend: 0x0, symName: __ZNSt3__116allocator_traitsINS_9allocatorINS_4pairIiNS_12basic_stringIcNS_11char_traitsIcEENS1_IcEEEEEEEEE8max_sizeB7v160006IS9_vEEmRKS9_, symObjAddr: 0x85E8, symBinAddr: 0x10000BAA0, symSize: 0x24 }
  - { offsetInCU: 0x183A8, offset: 0x183A8, size: 0x8, addend: 0x0, symName: __ZNKSt3__16vectorINS_4pairIiNS_12basic_stringIcNS_11char_traitsIcEENS_9allocatorIcEEEEEENS5_IS8_EEE7__allocB7v160006Ev, symObjAddr: 0x860C, symBinAddr: 0x10000BAC4, symSize: 0x28 }
  - { offsetInCU: 0x183CE, offset: 0x183CE, size: 0x8, addend: 0x0, symName: __ZNKSt3__19allocatorINS_4pairIiNS_12basic_stringIcNS_11char_traitsIcEENS0_IcEEEEEEE8max_sizeB7v160006Ev, symObjAddr: 0x8634, symBinAddr: 0x10000BAEC, symSize: 0x14 }
  - { offsetInCU: 0x183F4, offset: 0x183F4, size: 0x8, addend: 0x0, symName: __ZNKSt3__117__compressed_pairIPNS_4pairIiNS_12basic_stringIcNS_11char_traitsIcEENS_9allocatorIcEEEEEENS5_IS8_EEE6secondB7v160006Ev, symObjAddr: 0x8648, symBinAddr: 0x10000BB00, symSize: 0x24 }
  - { offsetInCU: 0x1841A, offset: 0x1841A, size: 0x8, addend: 0x0, symName: __ZNKSt3__122__compressed_pair_elemINS_9allocatorINS_4pairIiNS_12basic_stringIcNS_11char_traitsIcEENS1_IcEEEEEEEELi1ELb1EE5__getB7v160006Ev, symObjAddr: 0x866C, symBinAddr: 0x10000BB24, symSize: 0x14 }
  - { offsetInCU: 0x18440, offset: 0x18440, size: 0x8, addend: 0x0, symName: __ZNSt3__114__split_bufferINS_4pairIiNS_12basic_stringIcNS_11char_traitsIcEENS_9allocatorIcEEEEEERNS5_IS8_EEEC2EmmSA_, symObjAddr: 0x8680, symBinAddr: 0x10000BB38, symSize: 0xD4 }
  - { offsetInCU: 0x184B4, offset: 0x184B4, size: 0x8, addend: 0x0, symName: __ZNSt3__117__compressed_pairIPNS_4pairIiNS_12basic_stringIcNS_11char_traitsIcEENS_9allocatorIcEEEEEERNS5_IS8_EEEC1B7v160006IDnSB_EEOT_OT0_, symObjAddr: 0x8754, symBinAddr: 0x10000BC0C, symSize: 0x3C }
  - { offsetInCU: 0x1850C, offset: 0x1850C, size: 0x8, addend: 0x0, symName: __ZNSt3__114__split_bufferINS_4pairIiNS_12basic_stringIcNS_11char_traitsIcEENS_9allocatorIcEEEEEERNS5_IS8_EEE7__allocB7v160006Ev, symObjAddr: 0x87D0, symBinAddr: 0x10000BC88, symSize: 0x28 }
  - { offsetInCU: 0x18532, offset: 0x18532, size: 0x8, addend: 0x0, symName: __ZNSt3__114__split_bufferINS_4pairIiNS_12basic_stringIcNS_11char_traitsIcEENS_9allocatorIcEEEEEERNS5_IS8_EEE9__end_capB7v160006Ev, symObjAddr: 0x87F8, symBinAddr: 0x10000BCB0, symSize: 0x28 }
  - { offsetInCU: 0x18558, offset: 0x18558, size: 0x8, addend: 0x0, symName: __ZNSt3__117__compressed_pairIPNS_4pairIiNS_12basic_stringIcNS_11char_traitsIcEENS_9allocatorIcEEEEEERNS5_IS8_EEEC2B7v160006IDnSB_EEOT_OT0_, symObjAddr: 0x8820, symBinAddr: 0x10000BCD8, symSize: 0x48 }
  - { offsetInCU: 0x185B0, offset: 0x185B0, size: 0x8, addend: 0x0, symName: __ZNSt3__122__compressed_pair_elemIPNS_4pairIiNS_12basic_stringIcNS_11char_traitsIcEENS_9allocatorIcEEEEEELi0ELb0EEC2B7v160006IDnvEEOT_, symObjAddr: 0x8868, symBinAddr: 0x10000BD20, symSize: 0x1C }
  - { offsetInCU: 0x185F2, offset: 0x185F2, size: 0x8, addend: 0x0, symName: __ZNSt3__122__compressed_pair_elemIRNS_9allocatorINS_4pairIiNS_12basic_stringIcNS_11char_traitsIcEENS1_IcEEEEEEEELi1ELb0EEC2B7v160006ISA_vEEOT_, symObjAddr: 0x8884, symBinAddr: 0x10000BD3C, symSize: 0x20 }
  - { offsetInCU: 0x18634, offset: 0x18634, size: 0x8, addend: 0x0, symName: __ZNSt3__19allocatorINS_4pairIiNS_12basic_stringIcNS_11char_traitsIcEENS0_IcEEEEEEE8allocateB7v160006Em, symObjAddr: 0x88A4, symBinAddr: 0x10000BD5C, symSize: 0x58 }
  - { offsetInCU: 0x18668, offset: 0x18668, size: 0x8, addend: 0x0, symName: __ZNSt3__117__compressed_pairIPNS_4pairIiNS_12basic_stringIcNS_11char_traitsIcEENS_9allocatorIcEEEEEERNS5_IS8_EEE6secondB7v160006Ev, symObjAddr: 0x88FC, symBinAddr: 0x10000BDB4, symSize: 0x28 }
  - { offsetInCU: 0x1868E, offset: 0x1868E, size: 0x8, addend: 0x0, symName: __ZNSt3__122__compressed_pair_elemIRNS_9allocatorINS_4pairIiNS_12basic_stringIcNS_11char_traitsIcEENS1_IcEEEEEEEELi1ELb0EE5__getB7v160006Ev, symObjAddr: 0x8924, symBinAddr: 0x10000BDDC, symSize: 0x18 }
  - { offsetInCU: 0x186B4, offset: 0x186B4, size: 0x8, addend: 0x0, symName: __ZNSt3__117__compressed_pairIPNS_4pairIiNS_12basic_stringIcNS_11char_traitsIcEENS_9allocatorIcEEEEEERNS5_IS8_EEE5firstB7v160006Ev, symObjAddr: 0x893C, symBinAddr: 0x10000BDF4, symSize: 0x24 }
  - { offsetInCU: 0x186DA, offset: 0x186DA, size: 0x8, addend: 0x0, symName: __ZNSt3__116reverse_iteratorIPNS_4pairIiNS_12basic_stringIcNS_11char_traitsIcEENS_9allocatorIcEEEEEEEC1B7v160006ES9_, symObjAddr: 0x8A8C, symBinAddr: 0x10000BF44, symSize: 0x34 }
  - { offsetInCU: 0x18712, offset: 0x18712, size: 0x8, addend: 0x0, symName: __ZNKSt3__116reverse_iteratorIPNS_4pairIiNS_12basic_stringIcNS_11char_traitsIcEENS_9allocatorIcEEEEEEE4baseB7v160006Ev, symObjAddr: 0x8AC0, symBinAddr: 0x10000BF78, symSize: 0x18 }
  - { offsetInCU: 0x18738, offset: 0x18738, size: 0x8, addend: 0x0, symName: __ZNKSt3__16vectorINS_4pairIiNS_12basic_stringIcNS_11char_traitsIcEENS_9allocatorIcEEEEEENS5_IS8_EEE14__annotate_newB7v160006Em, symObjAddr: 0x8B14, symBinAddr: 0x10000BFCC, symSize: 0xAC }
  - { offsetInCU: 0x1876D, offset: 0x1876D, size: 0x8, addend: 0x0, symName: __ZNSt3__129_AllocatorDestroyRangeReverseINS_9allocatorINS_4pairIiNS_12basic_stringIcNS_11char_traitsIcEENS1_IcEEEEEEEENS_16reverse_iteratorIPS8_EEEC1B7v160006ERS9_RSC_SF_, symObjAddr: 0x8C1C, symBinAddr: 0x10000C0D4, symSize: 0x44 }
  - { offsetInCU: 0x187C4, offset: 0x187C4, size: 0x8, addend: 0x0, symName: __ZNKSt3__116reverse_iteratorIPNS_4pairIiNS_12basic_stringIcNS_11char_traitsIcEENS_9allocatorIcEEEEEEEdeB7v160006Ev, symObjAddr: 0x8CCC, symBinAddr: 0x10000C184, symSize: 0x28 }
  - { offsetInCU: 0x187F8, offset: 0x187F8, size: 0x8, addend: 0x0, symName: __ZNSt3__116reverse_iteratorIPNS_4pairIiNS_12basic_stringIcNS_11char_traitsIcEENS_9allocatorIcEEEEEEEppB7v160006Ev, symObjAddr: 0x8CF4, symBinAddr: 0x10000C1AC, symSize: 0x20 }
  - { offsetInCU: 0x1881E, offset: 0x1881E, size: 0x8, addend: 0x0, symName: __ZNSt3__128__exception_guard_exceptionsINS_29_AllocatorDestroyRangeReverseINS_9allocatorINS_4pairIiNS_12basic_stringIcNS_11char_traitsIcEENS2_IcEEEEEEEENS_16reverse_iteratorIPS9_EEEEE10__completeB7v160006Ev, symObjAddr: 0x8D14, symBinAddr: 0x10000C1CC, symSize: 0x1C }
  - { offsetInCU: 0x18844, offset: 0x18844, size: 0x8, addend: 0x0, symName: __ZNSt3__128__exception_guard_exceptionsINS_29_AllocatorDestroyRangeReverseINS_9allocatorINS_4pairIiNS_12basic_stringIcNS_11char_traitsIcEENS2_IcEEEEEEEENS_16reverse_iteratorIPS9_EEEEED1B7v160006Ev, symObjAddr: 0x8D30, symBinAddr: 0x10000C1E8, symSize: 0x2C }
  - { offsetInCU: 0x1886E, offset: 0x1886E, size: 0x8, addend: 0x0, symName: __ZNSt3__128__exception_guard_exceptionsINS_29_AllocatorDestroyRangeReverseINS_9allocatorINS_4pairIiNS_12basic_stringIcNS_11char_traitsIcEENS2_IcEEEEEEEENS_16reverse_iteratorIPS9_EEEEEC1B7v160006ESE_, symObjAddr: 0x8D5C, symBinAddr: 0x10000C214, symSize: 0x34 }
  - { offsetInCU: 0x188A7, offset: 0x188A7, size: 0x8, addend: 0x0, symName: __ZNSt3__128__exception_guard_exceptionsINS_29_AllocatorDestroyRangeReverseINS_9allocatorINS_4pairIiNS_12basic_stringIcNS_11char_traitsIcEENS2_IcEEEEEEEENS_16reverse_iteratorIPS9_EEEEEC2B7v160006ESE_, symObjAddr: 0x8D90, symBinAddr: 0x10000C248, symSize: 0x30 }
  - { offsetInCU: 0x188E0, offset: 0x188E0, size: 0x8, addend: 0x0, symName: __ZNSt3__129_AllocatorDestroyRangeReverseINS_9allocatorINS_4pairIiNS_12basic_stringIcNS_11char_traitsIcEENS1_IcEEEEEEEENS_16reverse_iteratorIPS8_EEEC2B7v160006ERS9_RSC_SF_, symObjAddr: 0x8DC0, symBinAddr: 0x10000C278, symSize: 0x38 }
  - { offsetInCU: 0x1893C, offset: 0x1893C, size: 0x8, addend: 0x0, symName: __ZNSt3__119__to_address_helperINS_16reverse_iteratorIPNS_4pairIiNS_12basic_stringIcNS_11char_traitsIcEENS_9allocatorIcEEEEEEEEvE6__callB7v160006ERKSB_, symObjAddr: 0x8DF8, symBinAddr: 0x10000C2B0, symSize: 0x38 }
  - { offsetInCU: 0x1895F, offset: 0x1895F, size: 0x8, addend: 0x0, symName: __ZNKSt3__116reverse_iteratorIPNS_4pairIiNS_12basic_stringIcNS_11char_traitsIcEENS_9allocatorIcEEEEEEEptB7v160006Ev, symObjAddr: 0x8E30, symBinAddr: 0x10000C2E8, symSize: 0x24 }
  - { offsetInCU: 0x18985, offset: 0x18985, size: 0x8, addend: 0x0, symName: __ZNSt3__128__exception_guard_exceptionsINS_29_AllocatorDestroyRangeReverseINS_9allocatorINS_4pairIiNS_12basic_stringIcNS_11char_traitsIcEENS2_IcEEEEEEEENS_16reverse_iteratorIPS9_EEEEED2B7v160006Ev, symObjAddr: 0x8E54, symBinAddr: 0x10000C30C, symSize: 0x50 }
  - { offsetInCU: 0x189AF, offset: 0x189AF, size: 0x8, addend: 0x0, symName: __ZNKSt3__129_AllocatorDestroyRangeReverseINS_9allocatorINS_4pairIiNS_12basic_stringIcNS_11char_traitsIcEENS1_IcEEEEEEEENS_16reverse_iteratorIPS8_EEEclB7v160006Ev, symObjAddr: 0x8EA4, symBinAddr: 0x10000C35C, symSize: 0xB4 }
  - { offsetInCU: 0x189D6, offset: 0x189D6, size: 0x8, addend: 0x0, symName: __ZNSt3__116reverse_iteratorINS0_IPNS_4pairIiNS_12basic_stringIcNS_11char_traitsIcEENS_9allocatorIcEEEEEEEEEC1B7v160006ESA_, symObjAddr: 0x8FC8, symBinAddr: 0x10000C480, symSize: 0x3C }
  - { offsetInCU: 0x18A0E, offset: 0x18A0E, size: 0x8, addend: 0x0, symName: __ZNSt3__116reverse_iteratorINS0_IPNS_4pairIiNS_12basic_stringIcNS_11char_traitsIcEENS_9allocatorIcEEEEEEEEEppB7v160006Ev, symObjAddr: 0x9088, symBinAddr: 0x10000C540, symSize: 0x30 }
  - { offsetInCU: 0x18A34, offset: 0x18A34, size: 0x8, addend: 0x0, symName: __ZNKSt3__116reverse_iteratorINS0_IPNS_4pairIiNS_12basic_stringIcNS_11char_traitsIcEENS_9allocatorIcEEEEEEEEE4baseB7v160006Ev, symObjAddr: 0x90B8, symBinAddr: 0x10000C570, symSize: 0x24 }
  - { offsetInCU: 0x18A5F, offset: 0x18A5F, size: 0x8, addend: 0x0, symName: __ZNSt3__119__to_address_helperINS_16reverse_iteratorINS1_IPNS_4pairIiNS_12basic_stringIcNS_11char_traitsIcEENS_9allocatorIcEEEEEEEEEEvE6__callB7v160006ERKSC_, symObjAddr: 0x90DC, symBinAddr: 0x10000C594, symSize: 0x38 }
  - { offsetInCU: 0x18A82, offset: 0x18A82, size: 0x8, addend: 0x0, symName: __ZNKSt3__116reverse_iteratorINS0_IPNS_4pairIiNS_12basic_stringIcNS_11char_traitsIcEENS_9allocatorIcEEEEEEEEEptB7v160006Ev, symObjAddr: 0x9114, symBinAddr: 0x10000C5CC, symSize: 0x24 }
  - { offsetInCU: 0x18AA8, offset: 0x18AA8, size: 0x8, addend: 0x0, symName: __ZNKSt3__116reverse_iteratorINS0_IPNS_4pairIiNS_12basic_stringIcNS_11char_traitsIcEENS_9allocatorIcEEEEEEEEEdeB7v160006Ev, symObjAddr: 0x9138, symBinAddr: 0x10000C5F0, symSize: 0x34 }
  - { offsetInCU: 0x18ADC, offset: 0x18ADC, size: 0x8, addend: 0x0, symName: __ZNSt3__116reverse_iteratorIPNS_4pairIiNS_12basic_stringIcNS_11char_traitsIcEENS_9allocatorIcEEEEEEEmmB7v160006Ev, symObjAddr: 0x916C, symBinAddr: 0x10000C624, symSize: 0x20 }
  - { offsetInCU: 0x18B02, offset: 0x18B02, size: 0x8, addend: 0x0, symName: __ZNSt3__116reverse_iteratorINS0_IPNS_4pairIiNS_12basic_stringIcNS_11char_traitsIcEENS_9allocatorIcEEEEEEEEEC2B7v160006ESA_, symObjAddr: 0x918C, symBinAddr: 0x10000C644, symSize: 0x2C }
  - { offsetInCU: 0x18B3A, offset: 0x18B3A, size: 0x8, addend: 0x0, symName: __ZNSt3__116reverse_iteratorIPNS_4pairIiNS_12basic_stringIcNS_11char_traitsIcEENS_9allocatorIcEEEEEEEC2B7v160006ES9_, symObjAddr: 0x91B8, symBinAddr: 0x10000C670, symSize: 0x28 }
  - { offsetInCU: 0x18B72, offset: 0x18B72, size: 0x8, addend: 0x0, symName: __ZNSt3__114__split_bufferINS_4pairIiNS_12basic_stringIcNS_11char_traitsIcEENS_9allocatorIcEEEEEERNS5_IS8_EEED2Ev, symObjAddr: 0x91E0, symBinAddr: 0x10000C698, symSize: 0x8C }
  - { offsetInCU: 0x18B9E, offset: 0x18B9E, size: 0x8, addend: 0x0, symName: __ZNSt3__114__split_bufferINS_4pairIiNS_12basic_stringIcNS_11char_traitsIcEENS_9allocatorIcEEEEEERNS5_IS8_EEE5clearB7v160006Ev, symObjAddr: 0x926C, symBinAddr: 0x10000C724, symSize: 0x28 }
  - { offsetInCU: 0x18BC4, offset: 0x18BC4, size: 0x8, addend: 0x0, symName: __ZNKSt3__114__split_bufferINS_4pairIiNS_12basic_stringIcNS_11char_traitsIcEENS_9allocatorIcEEEEEERNS5_IS8_EEE8capacityB7v160006Ev, symObjAddr: 0x9294, symBinAddr: 0x10000C74C, symSize: 0x40 }
  - { offsetInCU: 0x18BEA, offset: 0x18BEA, size: 0x8, addend: 0x0, symName: __ZNSt3__114__split_bufferINS_4pairIiNS_12basic_stringIcNS_11char_traitsIcEENS_9allocatorIcEEEEEERNS5_IS8_EEE17__destruct_at_endB7v160006EPS8_, symObjAddr: 0x92D4, symBinAddr: 0x10000C78C, symSize: 0x2C }
  - { offsetInCU: 0x18C1E, offset: 0x18C1E, size: 0x8, addend: 0x0, symName: __ZNSt3__114__split_bufferINS_4pairIiNS_12basic_stringIcNS_11char_traitsIcEENS_9allocatorIcEEEEEERNS5_IS8_EEE17__destruct_at_endB7v160006EPS8_NS_17integral_constantIbLb0EEE, symObjAddr: 0x9300, symBinAddr: 0x10000C7B8, symSize: 0x80 }
  - { offsetInCU: 0x18C5E, offset: 0x18C5E, size: 0x8, addend: 0x0, symName: __ZNKSt3__114__split_bufferINS_4pairIiNS_12basic_stringIcNS_11char_traitsIcEENS_9allocatorIcEEEEEERNS5_IS8_EEE9__end_capB7v160006Ev, symObjAddr: 0x9380, symBinAddr: 0x10000C838, symSize: 0x28 }
  - { offsetInCU: 0x18C84, offset: 0x18C84, size: 0x8, addend: 0x0, symName: __ZNKSt3__117__compressed_pairIPNS_4pairIiNS_12basic_stringIcNS_11char_traitsIcEENS_9allocatorIcEEEEEERNS5_IS8_EEE5firstB7v160006Ev, symObjAddr: 0x93A8, symBinAddr: 0x10000C860, symSize: 0x24 }
  - { offsetInCU: 0x18CAA, offset: 0x18CAA, size: 0x8, addend: 0x0, symName: __ZNKSt3__111__wrap_iterIPNS_4pairIiNS_12basic_stringIcNS_11char_traitsIcEENS_9allocatorIcEEEEEEEplB7v160006El, symObjAddr: 0x960C, symBinAddr: 0x10000CAC4, symSize: 0x3C }
  - { offsetInCU: 0x18CEC, offset: 0x18CEC, size: 0x8, addend: 0x0, symName: __ZNKSt3__17greaterINS_4pairIiNS_12basic_stringIcNS_11char_traitsIcEENS_9allocatorIcEEEEEEEclB7v160006ERKS8_SB_, symObjAddr: 0x9648, symBinAddr: 0x10000CB00, symSize: 0x34 }
  - { offsetInCU: 0x18D30, offset: 0x18D30, size: 0x8, addend: 0x0, symName: __ZNSt3__111__wrap_iterIPNS_4pairIiNS_12basic_stringIcNS_11char_traitsIcEENS_9allocatorIcEEEEEEEmmB7v160006Ev, symObjAddr: 0x967C, symBinAddr: 0x10000CB34, symSize: 0x20 }
  - { offsetInCU: 0x18D56, offset: 0x18D56, size: 0x8, addend: 0x0, symName: __ZNSt3__18_IterOpsINS_17_ClassicAlgPolicyEE11__iter_moveB7v160006IRNS_11__wrap_iterIPNS_4pairIiNS_12basic_stringIcNS_11char_traitsIcEENS_9allocatorIcEEEEEEEEEENS_9enable_ifIXsr12is_referenceIDTdeclsr3stdE7declvalIRT_EEEEE5valueEDTclsr3stdE4movedeclsr3stdE7declvalISI_EEEEE4typeEOSH_, symObjAddr: 0x969C, symBinAddr: 0x10000CB54, symSize: 0x28 }
  - { offsetInCU: 0x18D82, offset: 0x18D82, size: 0x8, addend: 0x0, symName: __ZNSt3__14pairIiNS_12basic_stringIcNS_11char_traitsIcEENS_9allocatorIcEEEEEaSB7v160006EOS7_, symObjAddr: 0x96C4, symBinAddr: 0x10000CB7C, symSize: 0x48 }
  - { offsetInCU: 0x18DB7, offset: 0x18DB7, size: 0x8, addend: 0x0, symName: __ZNSt3__111__wrap_iterIPNS_4pairIiNS_12basic_stringIcNS_11char_traitsIcEENS_9allocatorIcEEEEEEEpLB7v160006El, symObjAddr: 0x970C, symBinAddr: 0x10000CBC4, symSize: 0x28 }
  - { offsetInCU: 0x18DEB, offset: 0x18DEB, size: 0x8, addend: 0x0, symName: __ZNKSt3__112basic_stringIcNS_11char_traitsIcEENS_9allocatorIcEEE7compareB7v160006ERKS5_, symObjAddr: 0x983C, symBinAddr: 0x10000CCF4, symSize: 0x4C }
  - { offsetInCU: 0x18E22, offset: 0x18E22, size: 0x8, addend: 0x0, symName: __ZNKSt3__112basic_stringIcNS_11char_traitsIcEENS_9allocatorIcEEE7compareINS_17basic_string_viewIcS2_EEEENS_9enable_ifIXsr33__can_be_converted_to_string_viewIcS2_T_EE5valueEiE4typeERKSA_, symObjAddr: 0x9888, symBinAddr: 0x10000CD40, symSize: 0x12C }
  - { offsetInCU: 0x18E9F, offset: 0x18E9F, size: 0x8, addend: 0x0, symName: __ZNKSt3__112basic_stringIcNS_11char_traitsIcEENS_9allocatorIcEEEcvNS_17basic_string_viewIcS2_EEB7v160006Ev, symObjAddr: 0x99B4, symBinAddr: 0x10000CE6C, symSize: 0x50 }
  - { offsetInCU: 0x18EC5, offset: 0x18EC5, size: 0x8, addend: 0x0, symName: __ZNKSt3__117basic_string_viewIcNS_11char_traitsIcEEE4sizeB7v160006Ev, symObjAddr: 0x9A04, symBinAddr: 0x10000CEBC, symSize: 0x18 }
  - { offsetInCU: 0x18EEB, offset: 0x18EEB, size: 0x8, addend: 0x0, symName: __ZNKSt3__117basic_string_viewIcNS_11char_traitsIcEEE4dataB7v160006Ev, symObjAddr: 0x9A1C, symBinAddr: 0x10000CED4, symSize: 0x18 }
  - { offsetInCU: 0x18F11, offset: 0x18F11, size: 0x8, addend: 0x0, symName: __ZNSt3__117basic_string_viewIcNS_11char_traitsIcEEEC1B7v160006EPKcm, symObjAddr: 0x9A34, symBinAddr: 0x10000CEEC, symSize: 0x3C }
  - { offsetInCU: 0x18F59, offset: 0x18F59, size: 0x8, addend: 0x0, symName: __ZNSt3__117basic_string_viewIcNS_11char_traitsIcEEEC2B7v160006EPKcm, symObjAddr: 0x9A70, symBinAddr: 0x10000CF28, symSize: 0x50 }
  - { offsetInCU: 0x18FA1, offset: 0x18FA1, size: 0x8, addend: 0x0, symName: __ZNSt3__18_IterOpsINS_17_ClassicAlgPolicyEE25__validate_iter_referenceB7v160006IRNS_11__wrap_iterIPNS_4pairIiNS_12basic_stringIcNS_11char_traitsIcEENS_9allocatorIcEEEEEEEEEEvv, symObjAddr: 0x9AC0, symBinAddr: 0x10000CF78, symSize: 0x4 }
  - { offsetInCU: 0x18FBF, offset: 0x18FBF, size: 0x8, addend: 0x0, symName: __ZNSt3__112basic_stringIcNS_11char_traitsIcEENS_9allocatorIcEEEaSB7v160006EOS5_, symObjAddr: 0x9AC4, symBinAddr: 0x10000CF7C, symSize: 0x34 }
  - { offsetInCU: 0x18FF4, offset: 0x18FF4, size: 0x8, addend: 0x0, symName: __ZNSt3__112basic_stringIcNS_11char_traitsIcEENS_9allocatorIcEEE13__move_assignB7v160006ERS5_NS_17integral_constantIbLb1EEE, symObjAddr: 0x9AF8, symBinAddr: 0x10000CFB0, symSize: 0xC8 }
  - { offsetInCU: 0x19037, offset: 0x19037, size: 0x8, addend: 0x0, symName: __ZNSt3__116allocator_traitsINS_9allocatorIcEEE10deallocateB7v160006ERS2_Pcm, symObjAddr: 0x9BC0, symBinAddr: 0x10000D078, symSize: 0x34 }
  - { offsetInCU: 0x19079, offset: 0x19079, size: 0x8, addend: 0x0, symName: __ZNSt3__112basic_stringIcNS_11char_traitsIcEENS_9allocatorIcEEE7__allocB7v160006Ev, symObjAddr: 0x9BF4, symBinAddr: 0x10000D0AC, symSize: 0x24 }
  - { offsetInCU: 0x1909F, offset: 0x1909F, size: 0x8, addend: 0x0, symName: __ZNKSt3__112basic_stringIcNS_11char_traitsIcEENS_9allocatorIcEEE14__get_long_capB7v160006Ev, symObjAddr: 0x9C18, symBinAddr: 0x10000D0D0, symSize: 0x30 }
  - { offsetInCU: 0x190C5, offset: 0x190C5, size: 0x8, addend: 0x0, symName: __ZNSt3__112basic_stringIcNS_11char_traitsIcEENS_9allocatorIcEEE19__move_assign_allocB7v160006ERS5_, symObjAddr: 0x9C48, symBinAddr: 0x10000D100, symSize: 0x2C }
  - { offsetInCU: 0x190FA, offset: 0x190FA, size: 0x8, addend: 0x0, symName: __ZNSt3__19allocatorIcE10deallocateB7v160006EPcm, symObjAddr: 0x9C74, symBinAddr: 0x10000D12C, symSize: 0x40 }
  - { offsetInCU: 0x1913C, offset: 0x1913C, size: 0x8, addend: 0x0, symName: __ZNSt3__117__compressed_pairINS_12basic_stringIcNS_11char_traitsIcEENS_9allocatorIcEEE5__repES5_E6secondB7v160006Ev, symObjAddr: 0x9CB4, symBinAddr: 0x10000D16C, symSize: 0x24 }
  - { offsetInCU: 0x19162, offset: 0x19162, size: 0x8, addend: 0x0, symName: __ZNSt3__122__compressed_pair_elemINS_9allocatorIcEELi1ELb1EE5__getB7v160006Ev, symObjAddr: 0x9CD8, symBinAddr: 0x10000D190, symSize: 0x14 }
  - { offsetInCU: 0x19188, offset: 0x19188, size: 0x8, addend: 0x0, symName: __ZNSt3__112basic_stringIcNS_11char_traitsIcEENS_9allocatorIcEEE19__move_assign_allocB7v160006ERS5_NS_17integral_constantIbLb1EEE, symObjAddr: 0x9CEC, symBinAddr: 0x10000D1A4, symSize: 0x38 }
  - { offsetInCU: 0x191C9, offset: 0x191C9, size: 0x8, addend: 0x0, symName: __ZNSt3__16vectorINS_4pairIiNS_12basic_stringIcNS_11char_traitsIcEENS_9allocatorIcEEEEEENS5_IS8_EEE8pop_backEv, symObjAddr: 0x9D7C, symBinAddr: 0x10000D234, symSize: 0x2C }
  - { offsetInCU: 0x191F1, offset: 0x191F1, size: 0x8, addend: 0x0, symName: __ZNSt3__16vectorINS_4pairIiNS_12basic_stringIcNS_11char_traitsIcEENS_9allocatorIcEEEEEENS5_IS8_EEE17__destruct_at_endB7v160006EPS8_, symObjAddr: 0xA054, symBinAddr: 0x10000D50C, symSize: 0x60 }
  - { offsetInCU: 0x19235, offset: 0x19235, size: 0x8, addend: 0x0, symName: __ZNSt3__16vectorINS_4pairIiNS_12basic_stringIcNS_11char_traitsIcEENS_9allocatorIcEEEEEENS5_IS8_EEE27__invalidate_iterators_pastB7v160006EPS8_, symObjAddr: 0xA0B4, symBinAddr: 0x10000D56C, symSize: 0x14 }
  - { offsetInCU: 0x1926C, offset: 0x1926C, size: 0x8, addend: 0x0, symName: __ZNKSt3__16vectorINS_4pairIiNS_12basic_stringIcNS_11char_traitsIcEENS_9allocatorIcEEEEEENS5_IS8_EEE17__annotate_shrinkB7v160006Em, symObjAddr: 0xA0C8, symBinAddr: 0x10000D580, symSize: 0xB4 }
  - { offsetInCU: 0x192A1, offset: 0x192A1, size: 0x8, addend: 0x0, symName: __ZNKSt3__16vectorINS_4pairIiNS_12basic_stringIcNS_11char_traitsIcEENS_9allocatorIcEEEEEENS5_IS8_EEE5emptyB7v160006Ev, symObjAddr: 0xA17C, symBinAddr: 0x10000D634, symSize: 0x28 }
  - { offsetInCU: 0x192C7, offset: 0x192C7, size: 0x8, addend: 0x0, symName: __ZNSt3__16vectorINS_4pairIiNS_12basic_stringIcNS_11char_traitsIcEENS_9allocatorIcEEEEEENS5_IS8_EEE11__make_iterB7v160006EPS8_, symObjAddr: 0xA1A4, symBinAddr: 0x10000D65C, symSize: 0x34 }
  - { offsetInCU: 0x192FC, offset: 0x192FC, size: 0x8, addend: 0x0, symName: __ZNSt3__111__wrap_iterIPNS_4pairIiNS_12basic_stringIcNS_11char_traitsIcEENS_9allocatorIcEEEEEEEC1B7v160006EPKvS9_, symObjAddr: 0xA1D8, symBinAddr: 0x10000D690, symSize: 0x3C }
  - { offsetInCU: 0x19342, offset: 0x19342, size: 0x8, addend: 0x0, symName: __ZNSt3__111__wrap_iterIPNS_4pairIiNS_12basic_stringIcNS_11char_traitsIcEENS_9allocatorIcEEEEEEEC2B7v160006EPKvS9_, symObjAddr: 0xA214, symBinAddr: 0x10000D6CC, symSize: 0x24 }
  - { offsetInCU: 0x19388, offset: 0x19388, size: 0x8, addend: 0x0, symName: __ZNKSt3__16vectorINS_4pairIiNS_12basic_stringIcNS_11char_traitsIcEENS_9allocatorIcEEEEEENS5_IS8_EEE5frontB7v160006Ev, symObjAddr: 0xA238, symBinAddr: 0x10000D6F0, symSize: 0x18 }
  - { offsetInCU: 0x193AE, offset: 0x193AE, size: 0x8, addend: 0x0, symName: __ZNSt3__16vectorINS_4pairIiNS_12basic_stringIcNS_11char_traitsIcEENS_9allocatorIcEEEEEENS5_IS8_EEE22__construct_one_at_endB7v160006IJRKS8_EEEvDpOT_, symObjAddr: 0xA298, symBinAddr: 0x10000D750, symSize: 0x90 }
  - { offsetInCU: 0x193FD, offset: 0x193FD, size: 0x8, addend: 0x0, symName: __ZNSt3__16vectorINS_4pairIiNS_12basic_stringIcNS_11char_traitsIcEENS_9allocatorIcEEEEEENS5_IS8_EEE12__move_rangeEPS8_SB_SB_, symObjAddr: 0xA328, symBinAddr: 0x10000D7E0, symSize: 0x12C }
  - { offsetInCU: 0x194BB, offset: 0x194BB, size: 0x8, addend: 0x0, symName: __ZNSt3__114pointer_traitsIPKNS_4pairIiNS_12basic_stringIcNS_11char_traitsIcEENS_9allocatorIcEEEEEEE10pointer_toB7v160006ERS9_, symObjAddr: 0xA454, symBinAddr: 0x10000D90C, symSize: 0x14 }
  - { offsetInCU: 0x194DE, offset: 0x194DE, size: 0x8, addend: 0x0, symName: __ZNSt3__14pairIiNS_12basic_stringIcNS_11char_traitsIcEENS_9allocatorIcEEEEEaSB7v160006ERKS7_, symObjAddr: 0xA468, symBinAddr: 0x10000D920, symSize: 0x48 }
  - { offsetInCU: 0x19513, offset: 0x19513, size: 0x8, addend: 0x0, symName: __ZNSt3__114__split_bufferINS_4pairIiNS_12basic_stringIcNS_11char_traitsIcEENS_9allocatorIcEEEEEERNS5_IS8_EEE9push_backB7v160006ERKS8_, symObjAddr: 0xA4B0, symBinAddr: 0x10000D968, symSize: 0x260 }
  - { offsetInCU: 0x1958C, offset: 0x1958C, size: 0x8, addend: 0x0, symName: __ZNKSt3__111__wrap_iterIPKNS_4pairIiNS_12basic_stringIcNS_11char_traitsIcEENS_9allocatorIcEEEEEEE4baseB7v160006Ev, symObjAddr: 0xA864, symBinAddr: 0x10000DD1C, symSize: 0x18 }
  - { offsetInCU: 0x195B2, offset: 0x195B2, size: 0x8, addend: 0x0, symName: __ZNSt3__116allocator_traitsINS_9allocatorINS_4pairIiNS_12basic_stringIcNS_11char_traitsIcEENS1_IcEEEEEEEEE9constructB7v160006IS8_JRKS8_EvEEvRS9_PT_DpOT0_, symObjAddr: 0xA87C, symBinAddr: 0x10000DD34, symSize: 0x34 }
  - { offsetInCU: 0x19609, offset: 0x19609, size: 0x8, addend: 0x0, symName: __ZNSt3__19allocatorINS_4pairIiNS_12basic_stringIcNS_11char_traitsIcEENS0_IcEEEEEEE9constructB7v160006IS7_JRKS7_EEEvPT_DpOT0_, symObjAddr: 0xA8B0, symBinAddr: 0x10000DD68, symSize: 0x30 }
  - { offsetInCU: 0x1965F, offset: 0x1965F, size: 0x8, addend: 0x0, symName: __ZNSt3__14pairIiNS_12basic_stringIcNS_11char_traitsIcEENS_9allocatorIcEEEEEC1ERKS7_, symObjAddr: 0xA8E0, symBinAddr: 0x10000DD98, symSize: 0x34 }
  - { offsetInCU: 0x19693, offset: 0x19693, size: 0x8, addend: 0x0, symName: __ZNSt3__14pairIiNS_12basic_stringIcNS_11char_traitsIcEENS_9allocatorIcEEEEEC2ERKS7_, symObjAddr: 0xA914, symBinAddr: 0x10000DDCC, symSize: 0x48 }
  - { offsetInCU: 0x196EB, offset: 0x196EB, size: 0x8, addend: 0x0, symName: __ZNKSt3__120__move_backward_loopINS_17_ClassicAlgPolicyEEclB7v160006IPNS_4pairIiNS_12basic_stringIcNS_11char_traitsIcEENS_9allocatorIcEEEEEESC_SC_EENS4_IT_T1_EESD_T0_SE_, symObjAddr: 0xAB38, symBinAddr: 0x10000DFF0, symSize: 0xA4 }
  - { offsetInCU: 0x19772, offset: 0x19772, size: 0x8, addend: 0x0, symName: __ZNSt3__18_IterOpsINS_17_ClassicAlgPolicyEE4nextB7v160006IPNS_4pairIiNS_12basic_stringIcNS_11char_traitsIcEENS_9allocatorIcEEEEEEEET_SD_SD_, symObjAddr: 0xACA0, symBinAddr: 0x10000E158, symSize: 0x18 }
  - { offsetInCU: 0x197A8, offset: 0x197A8, size: 0x8, addend: 0x0, symName: __ZNSt3__18_IterOpsINS_17_ClassicAlgPolicyEE11__iter_moveB7v160006IRPNS_4pairIiNS_12basic_stringIcNS_11char_traitsIcEENS_9allocatorIcEEEEEEEENS_9enable_ifIXsr12is_referenceIDTdeclsr3stdE7declvalIRT_EEEEE5valueEDTclsr3stdE4movedeclsr3stdE7declvalISG_EEEEE4typeEOSF_, symObjAddr: 0xACB8, symBinAddr: 0x10000E170, symSize: 0x28 }
  - { offsetInCU: 0x197D4, offset: 0x197D4, size: 0x8, addend: 0x0, symName: __ZNSt3__18_IterOpsINS_17_ClassicAlgPolicyEE25__validate_iter_referenceB7v160006IRPNS_4pairIiNS_12basic_stringIcNS_11char_traitsIcEENS_9allocatorIcEEEEEEEEvv, symObjAddr: 0xACE0, symBinAddr: 0x10000E198, symSize: 0x4 }
  - { offsetInCU: 0x197F2, offset: 0x197F2, size: 0x8, addend: 0x0, symName: __ZNSt3__118__unwrap_iter_implIPNS_4pairIiNS_12basic_stringIcNS_11char_traitsIcEENS_9allocatorIcEEEEEELb1EE8__unwrapB7v160006ES9_, symObjAddr: 0xACE4, symBinAddr: 0x10000E19C, symSize: 0x24 }
  - { offsetInCU: 0x1981B, offset: 0x1981B, size: 0x8, addend: 0x0, symName: __ZNSt3__14pairIPNS0_IiNS_12basic_stringIcNS_11char_traitsIcEENS_9allocatorIcEEEEEES8_EC1B7v160006IS8_S8_LPv0EEEOT_OT0_, symObjAddr: 0xAD08, symBinAddr: 0x10000E1C0, symSize: 0x3C }
  - { offsetInCU: 0x19879, offset: 0x19879, size: 0x8, addend: 0x0, symName: __ZNSt3__14pairIPNS0_IiNS_12basic_stringIcNS_11char_traitsIcEENS_9allocatorIcEEEEEES8_EC2B7v160006IS8_S8_LPv0EEEOT_OT0_, symObjAddr: 0xAD44, symBinAddr: 0x10000E1FC, symSize: 0x34 }
  - { offsetInCU: 0x198D7, offset: 0x198D7, size: 0x8, addend: 0x0, symName: __ZNSt3__118__unwrap_iter_implIPNS_4pairIiNS_12basic_stringIcNS_11char_traitsIcEENS_9allocatorIcEEEEEELb1EE8__rewrapB7v160006ES9_S9_, symObjAddr: 0xAD78, symBinAddr: 0x10000E230, symSize: 0x50 }
  - { offsetInCU: 0x19908, offset: 0x19908, size: 0x8, addend: 0x0, symName: __ZNSt3__114__split_bufferINS_4pairIiNS_12basic_stringIcNS_11char_traitsIcEENS_9allocatorIcEEEEEERNS5_IS8_EEE18__construct_at_endINS_13move_iteratorIPS8_EEEENS_9enable_ifIXsr27__is_cpp17_forward_iteratorIT_EE5valueEvE4typeESH_SH_, symObjAddr: 0xAE08, symBinAddr: 0x10000E2C0, symSize: 0xFC }
  - { offsetInCU: 0x19964, offset: 0x19964, size: 0x8, addend: 0x0, symName: __ZNSt3__113move_iteratorIPNS_4pairIiNS_12basic_stringIcNS_11char_traitsIcEENS_9allocatorIcEEEEEEEC1B7v160006ES9_, symObjAddr: 0xAF04, symBinAddr: 0x10000E3BC, symSize: 0x34 }
  - { offsetInCU: 0x199A6, offset: 0x199A6, size: 0x8, addend: 0x0, symName: __ZNKSt3__111__move_loopINS_17_ClassicAlgPolicyEEclB7v160006IPNS_4pairIiNS_12basic_stringIcNS_11char_traitsIcEENS_9allocatorIcEEEEEESC_SC_EENS4_IT_T1_EESD_T0_SE_, symObjAddr: 0xB074, symBinAddr: 0x10000E52C, symSize: 0x90 }
  - { offsetInCU: 0x19A1B, offset: 0x19A1B, size: 0x8, addend: 0x0, symName: __ZNSt3__114__split_bufferINS_4pairIiNS_12basic_stringIcNS_11char_traitsIcEENS_9allocatorIcEEEEEERNS5_IS8_EEE21_ConstructTransactionC1B7v160006EPPS8_m, symObjAddr: 0xB140, symBinAddr: 0x10000E5F8, symSize: 0x3C }
  - { offsetInCU: 0x19A61, offset: 0x19A61, size: 0x8, addend: 0x0, symName: __ZNKSt3__113move_iteratorIPNS_4pairIiNS_12basic_stringIcNS_11char_traitsIcEENS_9allocatorIcEEEEEEEdeB7v160006Ev, symObjAddr: 0xB17C, symBinAddr: 0x10000E634, symSize: 0x18 }
  - { offsetInCU: 0x19A87, offset: 0x19A87, size: 0x8, addend: 0x0, symName: __ZNSt3__113move_iteratorIPNS_4pairIiNS_12basic_stringIcNS_11char_traitsIcEENS_9allocatorIcEEEEEEEppB7v160006Ev, symObjAddr: 0xB194, symBinAddr: 0x10000E64C, symSize: 0x20 }
  - { offsetInCU: 0x19AAD, offset: 0x19AAD, size: 0x8, addend: 0x0, symName: __ZNSt3__114__split_bufferINS_4pairIiNS_12basic_stringIcNS_11char_traitsIcEENS_9allocatorIcEEEEEERNS5_IS8_EEE21_ConstructTransactionD1B7v160006Ev, symObjAddr: 0xB1B4, symBinAddr: 0x10000E66C, symSize: 0x2C }
  - { offsetInCU: 0x19AD7, offset: 0x19AD7, size: 0x8, addend: 0x0, symName: __ZNKSt3__113move_iteratorIPNS_4pairIiNS_12basic_stringIcNS_11char_traitsIcEENS_9allocatorIcEEEEEEE4baseB7v160006Ev, symObjAddr: 0xB258, symBinAddr: 0x10000E710, symSize: 0x18 }
  - { offsetInCU: 0x19AFD, offset: 0x19AFD, size: 0x8, addend: 0x0, symName: __ZNSt3__114__split_bufferINS_4pairIiNS_12basic_stringIcNS_11char_traitsIcEENS_9allocatorIcEEEEEERNS5_IS8_EEE21_ConstructTransactionC2B7v160006EPPS8_m, symObjAddr: 0xB270, symBinAddr: 0x10000E728, symSize: 0x44 }
  - { offsetInCU: 0x19B43, offset: 0x19B43, size: 0x8, addend: 0x0, symName: __ZNSt3__114__split_bufferINS_4pairIiNS_12basic_stringIcNS_11char_traitsIcEENS_9allocatorIcEEEEEERNS5_IS8_EEE21_ConstructTransactionD2B7v160006Ev, symObjAddr: 0xB2B4, symBinAddr: 0x10000E76C, symSize: 0x20 }
  - { offsetInCU: 0x19B6D, offset: 0x19B6D, size: 0x8, addend: 0x0, symName: __ZNSt3__113move_iteratorIPNS_4pairIiNS_12basic_stringIcNS_11char_traitsIcEENS_9allocatorIcEEEEEEEC2B7v160006ES9_, symObjAddr: 0xB2D4, symBinAddr: 0x10000E78C, symSize: 0x20 }
  - { offsetInCU: 0x19BA5, offset: 0x19BA5, size: 0x8, addend: 0x0, symName: __ZNSt3__129_AllocatorDestroyRangeReverseINS_9allocatorINS_4pairIiNS_12basic_stringIcNS_11char_traitsIcEENS1_IcEEEEEEEEPS8_EC1B7v160006ERS9_RSA_SD_, symObjAddr: 0xB434, symBinAddr: 0x10000E8EC, symSize: 0x44 }
  - { offsetInCU: 0x19BFC, offset: 0x19BFC, size: 0x8, addend: 0x0, symName: __ZNSt3__128__exception_guard_exceptionsINS_29_AllocatorDestroyRangeReverseINS_9allocatorINS_4pairIiNS_12basic_stringIcNS_11char_traitsIcEENS2_IcEEEEEEEEPS9_EEE10__completeB7v160006Ev, symObjAddr: 0xB478, symBinAddr: 0x10000E930, symSize: 0x1C }
  - { offsetInCU: 0x19C22, offset: 0x19C22, size: 0x8, addend: 0x0, symName: __ZNSt3__128__exception_guard_exceptionsINS_29_AllocatorDestroyRangeReverseINS_9allocatorINS_4pairIiNS_12basic_stringIcNS_11char_traitsIcEENS2_IcEEEEEEEEPS9_EEED1B7v160006Ev, symObjAddr: 0xB494, symBinAddr: 0x10000E94C, symSize: 0x2C }
  - { offsetInCU: 0x19C4C, offset: 0x19C4C, size: 0x8, addend: 0x0, symName: __ZNSt3__128__exception_guard_exceptionsINS_29_AllocatorDestroyRangeReverseINS_9allocatorINS_4pairIiNS_12basic_stringIcNS_11char_traitsIcEENS2_IcEEEEEEEEPS9_EEEC1B7v160006ESC_, symObjAddr: 0xB4C0, symBinAddr: 0x10000E978, symSize: 0x34 }
  - { offsetInCU: 0x19C85, offset: 0x19C85, size: 0x8, addend: 0x0, symName: __ZNSt3__128__exception_guard_exceptionsINS_29_AllocatorDestroyRangeReverseINS_9allocatorINS_4pairIiNS_12basic_stringIcNS_11char_traitsIcEENS2_IcEEEEEEEEPS9_EEEC2B7v160006ESC_, symObjAddr: 0xB4F4, symBinAddr: 0x10000E9AC, symSize: 0x30 }
  - { offsetInCU: 0x19CBE, offset: 0x19CBE, size: 0x8, addend: 0x0, symName: __ZNSt3__129_AllocatorDestroyRangeReverseINS_9allocatorINS_4pairIiNS_12basic_stringIcNS_11char_traitsIcEENS1_IcEEEEEEEEPS8_EC2B7v160006ERS9_RSA_SD_, symObjAddr: 0xB524, symBinAddr: 0x10000E9DC, symSize: 0x38 }
  - { offsetInCU: 0x19D15, offset: 0x19D15, size: 0x8, addend: 0x0, symName: __ZNSt3__128__exception_guard_exceptionsINS_29_AllocatorDestroyRangeReverseINS_9allocatorINS_4pairIiNS_12basic_stringIcNS_11char_traitsIcEENS2_IcEEEEEEEEPS9_EEED2B7v160006Ev, symObjAddr: 0xB55C, symBinAddr: 0x10000EA14, symSize: 0x50 }
  - { offsetInCU: 0x19D3F, offset: 0x19D3F, size: 0x8, addend: 0x0, symName: __ZNKSt3__129_AllocatorDestroyRangeReverseINS_9allocatorINS_4pairIiNS_12basic_stringIcNS_11char_traitsIcEENS1_IcEEEEEEEEPS8_EclB7v160006Ev, symObjAddr: 0xB5AC, symBinAddr: 0x10000EA64, symSize: 0x68 }
  - { offsetInCU: 0x19D65, offset: 0x19D65, size: 0x8, addend: 0x0, symName: __ZNSt3__112basic_stringIcNS_11char_traitsIcEENS_9allocatorIcEEEC2B7v160006IDnEEPKc, symObjAddr: 0xB684, symBinAddr: 0x10000EB3C, symSize: 0x60 }
  - { offsetInCU: 0x19DA3, offset: 0x19DA3, size: 0x8, addend: 0x0, symName: __ZNSt3__16vectorINS_4pairIiNS_12basic_stringIcNS_11char_traitsIcEENS_9allocatorIcEEEEEENS5_IS8_EEEC2B7v160006Ev, symObjAddr: 0xB6E4, symBinAddr: 0x10000EB9C, symSize: 0x58 }
  - { offsetInCU: 0x19DCD, offset: 0x19DCD, size: 0x8, addend: 0x0, symName: __ZNSt3__117__compressed_pairIPNS_4pairIiNS_12basic_stringIcNS_11char_traitsIcEENS_9allocatorIcEEEEEENS5_IS8_EEEC1B7v160006IDnNS_18__default_init_tagEEEOT_OT0_, symObjAddr: 0xB73C, symBinAddr: 0x10000EBF4, symSize: 0x3C }
  - { offsetInCU: 0x19E25, offset: 0x19E25, size: 0x8, addend: 0x0, symName: __ZNSt3__117__compressed_pairIPNS_4pairIiNS_12basic_stringIcNS_11char_traitsIcEENS_9allocatorIcEEEEEENS5_IS8_EEEC2B7v160006IDnNS_18__default_init_tagEEEOT_OT0_, symObjAddr: 0xB788, symBinAddr: 0x10000EC40, symSize: 0x40 }
  - { offsetInCU: 0x19E7D, offset: 0x19E7D, size: 0x8, addend: 0x0, symName: __ZNSt3__122__compressed_pair_elemINS_9allocatorINS_4pairIiNS_12basic_stringIcNS_11char_traitsIcEENS1_IcEEEEEEEELi1ELb1EEC2B7v160006ENS_18__default_init_tagE, symObjAddr: 0xB7C8, symBinAddr: 0x10000EC80, symSize: 0x2C }
  - { offsetInCU: 0x19EB1, offset: 0x19EB1, size: 0x8, addend: 0x0, symName: __ZNSt3__19allocatorINS_4pairIiNS_12basic_stringIcNS_11char_traitsIcEENS0_IcEEEEEEEC2B7v160006Ev, symObjAddr: 0xB7F4, symBinAddr: 0x10000ECAC, symSize: 0x2C }
  - { offsetInCU: 0x19EDB, offset: 0x19EDB, size: 0x8, addend: 0x0, symName: __ZNSt3__116__non_trivial_ifILb1ENS_9allocatorINS_4pairIiNS_12basic_stringIcNS_11char_traitsIcEENS1_IcEEEEEEEEEC2B7v160006Ev, symObjAddr: 0xB820, symBinAddr: 0x10000ECD8, symSize: 0x14 }
...
